; Listing generated by Microsoft (R) Optimizing Compiler Version 16.00.30319.01 

	TITLE	C:\Users\Michael\Desktop\Code\euroNAT\euroNatOptions.cpp
	.686P
	.XMM
	include listing.inc
	.model	flat

INCLUDELIB OLDNAMES

PUBLIC	??_R4CComboBox@@6B@				; CComboBox::`RTTI Complete Object Locator'
PUBLIC	??_R3CComboBox@@8				; CComboBox::`RTTI Class Hierarchy Descriptor'
PUBLIC	??_R2CComboBox@@8				; CComboBox::`RTTI Base Class Array'
PUBLIC	??_R1A@?0A@EA@CComboBox@@8			; CComboBox::`RTTI Base Class Descriptor at (0,-1,0,64)'
PUBLIC	??_R0?AVCComboBox@@@8				; CComboBox `RTTI Type Descriptor'
PUBLIC	??_R4CButton@@6B@				; CButton::`RTTI Complete Object Locator'
PUBLIC	??_R3CButton@@8					; CButton::`RTTI Class Hierarchy Descriptor'
PUBLIC	??_R2CButton@@8					; CButton::`RTTI Base Class Array'
PUBLIC	??_R1A@?0A@EA@CButton@@8			; CButton::`RTTI Base Class Descriptor at (0,-1,0,64)'
PUBLIC	??_R0?AVCButton@@@8				; CButton `RTTI Type Descriptor'
PUBLIC	??_R4CBrush@@6B@				; CBrush::`RTTI Complete Object Locator'
PUBLIC	??_R3CBrush@@8					; CBrush::`RTTI Class Hierarchy Descriptor'
PUBLIC	??_R2CBrush@@8					; CBrush::`RTTI Base Class Array'
PUBLIC	??_R1A@?0A@EA@CBrush@@8				; CBrush::`RTTI Base Class Descriptor at (0,-1,0,64)'
PUBLIC	??_R0?AVCBrush@@@8				; CBrush `RTTI Type Descriptor'
PUBLIC	??_R4CGdiObject@@6B@				; CGdiObject::`RTTI Complete Object Locator'
PUBLIC	??_R3CGdiObject@@8				; CGdiObject::`RTTI Class Hierarchy Descriptor'
PUBLIC	??_R2CGdiObject@@8				; CGdiObject::`RTTI Base Class Array'
PUBLIC	??_R1A@?0A@EA@CGdiObject@@8			; CGdiObject::`RTTI Base Class Descriptor at (0,-1,0,64)'
PUBLIC	??_R0?AVCGdiObject@@@8				; CGdiObject `RTTI Type Descriptor'
PUBLIC	?OnInitDialog@euroNatOptions@@UAEHXZ		; euroNatOptions::OnInitDialog
PUBLIC	?DoDataExchange@euroNatOptions@@MAEXPAVCDataExchange@@@Z ; euroNatOptions::DoDataExchange
PUBLIC	?GetMessageMap@euroNatOptions@@MBEPBUAFX_MSGMAP@@XZ ; euroNatOptions::GetMessageMap
PUBLIC	?GetRuntimeClass@euroNatOptions@@UBEPAUCRuntimeClass@@XZ ; euroNatOptions::GetRuntimeClass
PUBLIC	??_R4euroNatOptions@@6B@			; euroNatOptions::`RTTI Complete Object Locator'
PUBLIC	??_R3euroNatOptions@@8				; euroNatOptions::`RTTI Class Hierarchy Descriptor'
PUBLIC	??_R2euroNatOptions@@8				; euroNatOptions::`RTTI Base Class Array'
PUBLIC	??_R1A@?0A@EA@CDialogEx@@8			; CDialogEx::`RTTI Base Class Descriptor at (0,-1,0,64)'
PUBLIC	??_R3CDialogEx@@8				; CDialogEx::`RTTI Class Hierarchy Descriptor'
PUBLIC	??_R2CDialogEx@@8				; CDialogEx::`RTTI Base Class Array'
PUBLIC	??_R1A@?0A@EA@CDialog@@8			; CDialog::`RTTI Base Class Descriptor at (0,-1,0,64)'
PUBLIC	??_R3CDialog@@8					; CDialog::`RTTI Class Hierarchy Descriptor'
PUBLIC	??_R2CDialog@@8					; CDialog::`RTTI Base Class Array'
PUBLIC	??_R1A@?0A@EA@CWnd@@8				; CWnd::`RTTI Base Class Descriptor at (0,-1,0,64)'
PUBLIC	??_R3CWnd@@8					; CWnd::`RTTI Class Hierarchy Descriptor'
PUBLIC	??_R2CWnd@@8					; CWnd::`RTTI Base Class Array'
PUBLIC	??_R0?AVCWnd@@@8				; CWnd `RTTI Type Descriptor'
PUBLIC	??_R0?AVCDialog@@@8				; CDialog `RTTI Type Descriptor'
PUBLIC	??_R0?AVCDialogEx@@@8				; CDialogEx `RTTI Type Descriptor'
PUBLIC	??_R1A@?0A@EA@euroNatOptions@@8			; euroNatOptions::`RTTI Base Class Descriptor at (0,-1,0,64)'
PUBLIC	??_R0?AVeuroNatOptions@@@8			; euroNatOptions `RTTI Type Descriptor'
PUBLIC	?OnCbSelChangedLinestyle@euroNatOptions@@QAEXXZ	; euroNatOptions::OnCbSelChangedLinestyle
PUBLIC	?OnBnClickedCheckConcordTracks@euroNatOptions@@QAEXXZ ; euroNatOptions::OnBnClickedCheckConcordTracks
PUBLIC	?OnBnClickedCheckAntiAliased@euroNatOptions@@QAEXXZ ; euroNatOptions::OnBnClickedCheckAntiAliased
PUBLIC	?OnBnClickedCheckShortNames@euroNatOptions@@QAEXXZ ; euroNatOptions::OnBnClickedCheckShortNames
PUBLIC	?OnBnClickedCheckWestbound@euroNatOptions@@QAEXXZ ; euroNatOptions::OnBnClickedCheckWestbound
PUBLIC	?OnBnClickedCheckEastbound@euroNatOptions@@QAEXXZ ; euroNatOptions::OnBnClickedCheckEastbound
PUBLIC	?OnBnClickedCheckShowLetters@euroNatOptions@@QAEXXZ ; euroNatOptions::OnBnClickedCheckShowLetters
PUBLIC	?OnBnClickedCheckShowLines@euroNatOptions@@QAEXXZ ; euroNatOptions::OnBnClickedCheckShowLines
PUBLIC	?OnColorPickedConcorde@euroNatOptions@@QAEXXZ	; euroNatOptions::OnColorPickedConcorde
PUBLIC	?OnColorPickedWestbound@euroNatOptions@@QAEXXZ	; euroNatOptions::OnColorPickedWestbound
PUBLIC	?OnColorPickedEastbound@euroNatOptions@@QAEXXZ	; euroNatOptions::OnColorPickedEastbound
PUBLIC	?OnBnClickedLoadDefaults@euroNatOptions@@QAEXXZ	; euroNatOptions::OnBnClickedLoadDefaults
PUBLIC	?OnBnClickedGetNatData@euroNatOptions@@QAEXXZ	; euroNatOptions::OnBnClickedGetNatData
PUBLIC	?OnBnClickedOk@euroNatOptions@@QAEXXZ		; euroNatOptions::OnBnClickedOk
PUBLIC	??_C@_0P@JNDJFOFL@euroNatOptions?$AA@		; `string'
PUBLIC	??_GCButton@@UAEPAXI@Z				; CButton::`scalar deleting destructor'
PUBLIC	??0CButton@@QAE@XZ				; CButton::CButton
PUBLIC	??_GCComboBox@@UAEPAXI@Z			; CComboBox::`scalar deleting destructor'
PUBLIC	??0CComboBox@@QAE@XZ				; CComboBox::CComboBox
PUBLIC	??1CObject@@UAE@XZ				; CObject::~CObject
PUBLIC	??B?$CSimpleStringT@D$0A@@ATL@@QBEPBDXZ		; ATL::CSimpleStringT<char,0>::operator char const *
PUBLIC	??0?$CSimpleStringT@D$0A@@ATL@@QAE@PAUIAtlStringMgr@1@@Z ; ATL::CSimpleStringT<char,0>::CSimpleStringT<char,0>
PUBLIC	?GetDefaultManager@?$StrTraitMFC@DV?$ChTraitsCRT@D@ATL@@@@SAPAUIAtlStringMgr@ATL@@XZ ; StrTraitMFC<char,ATL::ChTraitsCRT<char> >::GetDefaultManager
PUBLIC	??0?$CStringT@DV?$StrTraitMFC@DV?$ChTraitsCRT@D@ATL@@@@@ATL@@QAE@XZ ; ATL::CStringT<char,StrTraitMFC<char,ATL::ChTraitsCRT<char> > >::CStringT<char,StrTraitMFC<char,ATL::ChTraitsCRT<char> > >
PUBLIC	??1?$CSimpleStringT@D$0A@@ATL@@QAE@XZ		; ATL::CSimpleStringT<char,0>::~CSimpleStringT<char,0>
PUBLIC	??1?$CStringT@DV?$StrTraitMFC@DV?$ChTraitsCRT@D@ATL@@@@@ATL@@QAE@XZ ; ATL::CStringT<char,StrTraitMFC<char,ATL::ChTraitsCRT<char> > >::~CStringT<char,StrTraitMFC<char,ATL::ChTraitsCRT<char> > >
PUBLIC	?IsShared@CStringData@ATL@@QBE_NXZ		; ATL::CStringData::IsShared
PUBLIC	?Release@CStringData@ATL@@QAEXXZ		; ATL::CStringData::Release
PUBLIC	?CopyChars@?$CSimpleStringT@D$0A@@ATL@@SAXPADIPBDH@Z ; ATL::CSimpleStringT<char,0>::CopyChars
PUBLIC	?Fork@?$CSimpleStringT@D$0A@@ATL@@AAEXH@Z	; ATL::CSimpleStringT<char,0>::Fork
PUBLIC	?ThrowMemoryException@?$CSimpleStringT@D$0A@@ATL@@KAXXZ ; ATL::CSimpleStringT<char,0>::ThrowMemoryException
PUBLIC	?data@CStringData@ATL@@QAEPAXXZ			; ATL::CStringData::data
PUBLIC	?Attach@?$CSimpleStringT@D$0A@@ATL@@AAEXPAUCStringData@2@@Z ; ATL::CSimpleStringT<char,0>::Attach
PUBLIC	?Reallocate@?$CSimpleStringT@D$0A@@ATL@@AAEXH@Z	; ATL::CSimpleStringT<char,0>::Reallocate
PUBLIC	?PrepareWrite2@?$CSimpleStringT@D$0A@@ATL@@AAEXH@Z ; ATL::CSimpleStringT<char,0>::PrepareWrite2
PUBLIC	?PrepareWrite@?$CSimpleStringT@D$0A@@ATL@@AAEPADH@Z ; ATL::CSimpleStringT<char,0>::PrepareWrite
PUBLIC	?GetBuffer@?$CSimpleStringT@D$0A@@ATL@@QAEPADH@Z ; ATL::CSimpleStringT<char,0>::GetBuffer
PUBLIC	?AtlThrowImpl@ATL@@YGXJ@Z			; ATL::AtlThrowImpl
PUBLIC	?GetData@?$CSimpleStringT@D$0A@@ATL@@ABEPAUCStringData@2@XZ ; ATL::CSimpleStringT<char,0>::GetData
PUBLIC	?SetLength@?$CSimpleStringT@D$0A@@ATL@@AAEXH@Z	; ATL::CSimpleStringT<char,0>::SetLength
PUBLIC	?ReleaseBufferSetLength@?$CSimpleStringT@D$0A@@ATL@@QAEXH@Z ; ATL::CSimpleStringT<char,0>::ReleaseBufferSetLength
PUBLIC	?GetFormattedLength@?$ChTraitsCRT@D@ATL@@SAHPBDPAD@Z ; ATL::ChTraitsCRT<char>::GetFormattedLength
PUBLIC	?Format@?$ChTraitsCRT@D@ATL@@SAHPADIPBD0@Z	; ATL::ChTraitsCRT<char>::Format
PUBLIC	?FormatV@?$CStringT@DV?$StrTraitMFC@DV?$ChTraitsCRT@D@ATL@@@@@ATL@@QAEXPBDPAD@Z ; ATL::CStringT<char,StrTraitMFC<char,ATL::ChTraitsCRT<char> > >::FormatV
PUBLIC	?Format@?$CStringT@DV?$StrTraitMFC@DV?$ChTraitsCRT@D@ATL@@@@@ATL@@QAAXPBDZZ ; ATL::CStringT<char,StrTraitMFC<char,ATL::ChTraitsCRT<char> > >::Format
PUBLIC	??_GCGdiObject@@UAEPAXI@Z			; CGdiObject::`scalar deleting destructor'
PUBLIC	??1CGdiObject@@UAE@XZ				; CGdiObject::~CGdiObject
PUBLIC	??_GCBrush@@UAEPAXI@Z				; CBrush::`scalar deleting destructor'
PUBLIC	??1CBrush@@UAE@XZ				; CBrush::~CBrush
PUBLIC	??1CDialogEx@@UAE@XZ				; CDialogEx::~CDialogEx
PUBLIC	?BeginModalState@CWnd@@UAEXXZ			; CWnd::BeginModalState
PUBLIC	?EndModalState@CWnd@@UAEXXZ			; CWnd::EndModalState
PUBLIC	?Create@CDialog@@UAEHIPAVCWnd@@@Z		; CDialog::Create
PUBLIC	??_GeuroNatOptions@@UAEPAXI@Z			; euroNatOptions::`scalar deleting destructor'
PUBLIC	?DoDataExchange@CWnd@@MAEXPAVCDataExchange@@@Z	; CWnd::DoDataExchange
PUBLIC	?GetColor@CMFCColorButton@@QBEKXZ		; CMFCColorButton::GetColor
PUBLIC	?GetCurSel@CComboBox@@QBEHXZ			; CComboBox::GetCurSel
PUBLIC	?GetCheck@CButton@@QBEHXZ			; CButton::GetCheck
PUBLIC	?SetCheck@CButton@@QAEXH@Z			; CButton::SetCheck
PUBLIC	?SetCurSel@CComboBox@@QAEHH@Z			; CComboBox::SetCurSel
PUBLIC	?GetWindowRect@CWnd@@QBEXPAUtagRECT@@@Z		; CWnd::GetWindowRect
PUBLIC	?classeuroNatOptions@euroNatOptions@@2UCRuntimeClass@@B ; euroNatOptions::classeuroNatOptions
PUBLIC	??_C@_07DLLKCFJK@More?4?4?4?$AA@		; `string'
PUBLIC	??_7euroNatOptions@@6B@				; euroNatOptions::`vftable'
PUBLIC	??_R0PAVCException@@@8				; CException * `RTTI Type Descriptor'
PUBLIC	??_C@_0FC@PBLIGINI@C?3?2Program?5Files?5?$CIx86?$CJ?2Microsoft@ ; `string'
PUBLIC	??_C@_0BP@OIEOKIDM@Exception?5thrown?5in?5destructor?$AA@ ; `string'
PUBLIC	??_C@_0O@KHJMBFME@?$CFs?5?$CI?$CFs?3?$CFd?$CJ?6?$CFs?$AA@ ; `string'
PUBLIC	??_C@_0L@LBHJMCDF@?$CFs?5?$CI?$CFs?3?$CFd?$CJ?$AA@ ; `string'
PUBLIC	??_7CGdiObject@@6B@				; CGdiObject::`vftable'
PUBLIC	??_7CBrush@@6B@					; CBrush::`vftable'
PUBLIC	??_7CButton@@6B@				; CButton::`vftable'
PUBLIC	??_7CComboBox@@6B@				; CComboBox::`vftable'
EXTRN	?GetRuntimeClass@CButton@@UBEPAUCRuntimeClass@@XZ:PROC ; CButton::GetRuntimeClass
EXTRN	?Create@CButton@@UAEHPBDKABUtagRECT@@PAVCWnd@@I@Z:PROC ; CButton::Create
EXTRN	?DrawItem@CButton@@UAEXPAUtagDRAWITEMSTRUCT@@@Z:PROC ; CButton::DrawItem
EXTRN	?OnChildNotify@CButton@@MAEHIIJPAJ@Z:PROC	; CButton::OnChildNotify
EXTRN	??_ECButton@@UAEPAXI@Z:PROC			; CButton::`vector deleting destructor'
EXTRN	??0CWnd@@QAE@XZ:PROC				; CWnd::CWnd
EXTRN	??1CWnd@@UAE@XZ:PROC				; CWnd::~CWnd
EXTRN	?OnCommand@CWnd@@MAEHIJ@Z:PROC			; CWnd::OnCommand
EXTRN	?PreTranslateMessage@CWnd@@UAEHPAUtagMSG@@@Z:PROC ; CWnd::PreTranslateMessage
EXTRN	?CheckAutoCenter@CWnd@@UAEHXZ:PROC		; CWnd::CheckAutoCenter
EXTRN	?SetOccDialogInfo@CWnd@@MAEHPAU_AFX_OCC_DIALOG_INFO@@@Z:PROC ; CWnd::SetOccDialogInfo
EXTRN	?GetOccDialogInfo@CWnd@@MAEPAU_AFX_OCC_DIALOG_INFO@@XZ:PROC ; CWnd::GetOccDialogInfo
EXTRN	?GetMessageMap@CWnd@@MBEPBUAFX_MSGMAP@@XZ:PROC	; CWnd::GetMessageMap
EXTRN	?GetRuntimeClass@CComboBox@@UBEPAUCRuntimeClass@@XZ:PROC ; CComboBox::GetRuntimeClass
EXTRN	?Create@CComboBox@@UAEHKABUtagRECT@@PAVCWnd@@I@Z:PROC ; CComboBox::Create
EXTRN	?DrawItem@CComboBox@@UAEXPAUtagDRAWITEMSTRUCT@@@Z:PROC ; CComboBox::DrawItem
EXTRN	?MeasureItem@CComboBox@@UAEXPAUtagMEASUREITEMSTRUCT@@@Z:PROC ; CComboBox::MeasureItem
EXTRN	?CompareItem@CComboBox@@UAEHPAUtagCOMPAREITEMSTRUCT@@@Z:PROC ; CComboBox::CompareItem
EXTRN	?DeleteItem@CComboBox@@UAEXPAUtagDELETEITEMSTRUCT@@@Z:PROC ; CComboBox::DeleteItem
EXTRN	?OnChildNotify@CComboBox@@MAEHIIJPAJ@Z:PROC	; CComboBox::OnChildNotify
EXTRN	??_ECComboBox@@UAEPAXI@Z:PROC			; CComboBox::`vector deleting destructor'
EXTRN	??0CDialogEx@@QAE@IPAVCWnd@@@Z:PROC		; CDialogEx::CDialogEx
EXTRN	??0CMFCColorButton@@QAE@XZ:PROC			; CMFCColorButton::CMFCColorButton
EXTRN	??1CButton@@UAE@XZ:PROC				; CButton::~CButton
EXTRN	??1CComboBox@@UAE@XZ:PROC			; CComboBox::~CComboBox
EXTRN	?AfxGetStringManager@@YGPAUIAtlStringMgr@ATL@@XZ:PROC ; AfxGetStringManager
EXTRN	_memcpy_s:PROC
EXTRN	?AfxThrowMemoryException@@YGXXZ:PROC		; AfxThrowMemoryException
EXTRN	?AfxThrowOleException@@YGXJ@Z:PROC		; AfxThrowOleException
EXTRN	__vscprintf:PROC
EXTRN	_vsprintf_s:PROC
EXTRN	?DeleteObject@CGdiObject@@QAEHXZ:PROC		; CGdiObject::DeleteObject
EXTRN	?GetRuntimeClass@CGdiObject@@UBEPAUCRuntimeClass@@XZ:PROC ; CGdiObject::GetRuntimeClass
EXTRN	??_ECGdiObject@@UAEPAXI@Z:PROC			; CGdiObject::`vector deleting destructor'
EXTRN	?AfxMessageBox@@YGHPBDII@Z:PROC			; AfxMessageBox
EXTRN	?GetRuntimeClass@CBrush@@UBEPAUCRuntimeClass@@XZ:PROC ; CBrush::GetRuntimeClass
EXTRN	??_ECBrush@@UAEPAXI@Z:PROC			; CBrush::`vector deleting destructor'
EXTRN	??1CDialog@@UAE@XZ:PROC				; CDialog::~CDialog
EXTRN	??1CDialogImpl@@MAE@XZ:PROC			; CDialogImpl::~CDialogImpl
EXTRN	??1CMFCColorButton@@UAE@XZ:PROC			; CMFCColorButton::~CMFCColorButton
EXTRN	?PreSubclassWindow@CWnd@@UAEXXZ:PROC		; CWnd::PreSubclassWindow
EXTRN	?Create@CWnd@@UAEHPBD0KABUtagRECT@@PAV1@IPAUCCreateContext@@@Z:PROC ; CWnd::Create
EXTRN	?CreateEx@CWnd@@UAEHKPBD0KHHHHPAUHWND__@@PAUHMENU__@@PAX@Z:PROC ; CWnd::CreateEx
EXTRN	?CreateEx@CWnd@@UAEHKPBD0KABUtagRECT@@PAV1@IPAX@Z:PROC ; CWnd::CreateEx
EXTRN	?DestroyWindow@CWnd@@UAEHXZ:PROC		; CWnd::DestroyWindow
EXTRN	?PreCreateWindow@CWnd@@UAEHAAUtagCREATESTRUCTA@@@Z:PROC ; CWnd::PreCreateWindow
EXTRN	?CalcWindowRect@CWnd@@UAEXPAUtagRECT@@I@Z:PROC	; CWnd::CalcWindowRect
EXTRN	?GetMenu@CWnd@@UBEPAVCMenu@@XZ:PROC		; CWnd::GetMenu
EXTRN	?SetMenu@CWnd@@UAEHPAVCMenu@@@Z:PROC		; CWnd::SetMenu
EXTRN	?OnToolHitTest@CWnd@@UBEHVCPoint@@PAUtagTOOLINFOA@@@Z:PROC ; CWnd::OnToolHitTest
EXTRN	?GetScrollBarCtrl@CWnd@@UBEPAVCScrollBar@@H@Z:PROC ; CWnd::GetScrollBarCtrl
EXTRN	?WinHelpA@CWnd@@UAEXKI@Z:PROC			; CWnd::WinHelpA
EXTRN	?HtmlHelpA@CWnd@@UAEXKI@Z:PROC			; CWnd::HtmlHelpA
EXTRN	?WinHelpInternal@CWnd@@UAEXKI@Z:PROC		; CWnd::WinHelpInternal
EXTRN	?ContinueModal@CWnd@@UAEHXZ:PROC		; CWnd::ContinueModal
EXTRN	?EndModalLoop@CWnd@@UAEXH@Z:PROC		; CWnd::EndModalLoop
EXTRN	?OnDrawIconicThumbnailOrLivePreview@CWnd@@UAEXAAVCDC@@VCRect@@VCSize@@HAAH@Z:PROC ; CWnd::OnDrawIconicThumbnailOrLivePreview
EXTRN	?GetInterfaceMap@CWnd@@MBEPBUAFX_INTERFACEMAP@@XZ:PROC ; CWnd::GetInterfaceMap
EXTRN	?EnsureStdObj@CWnd@@UAEJXZ:PROC			; CWnd::EnsureStdObj
EXTRN	?get_accParent@CWnd@@UAEJPAPAUIDispatch@@@Z:PROC ; CWnd::get_accParent
EXTRN	?get_accChildCount@CWnd@@UAEJPAJ@Z:PROC		; CWnd::get_accChildCount
EXTRN	?get_accChild@CWnd@@UAEJUtagVARIANT@@PAPAUIDispatch@@@Z:PROC ; CWnd::get_accChild
EXTRN	?get_accName@CWnd@@UAEJUtagVARIANT@@PAPAG@Z:PROC ; CWnd::get_accName
EXTRN	?get_accValue@CWnd@@UAEJUtagVARIANT@@PAPAG@Z:PROC ; CWnd::get_accValue
EXTRN	?get_accDescription@CWnd@@UAEJUtagVARIANT@@PAPAG@Z:PROC ; CWnd::get_accDescription
EXTRN	?get_accRole@CWnd@@UAEJUtagVARIANT@@PAU2@@Z:PROC ; CWnd::get_accRole
EXTRN	?get_accState@CWnd@@UAEJUtagVARIANT@@PAU2@@Z:PROC ; CWnd::get_accState
EXTRN	?get_accHelp@CWnd@@UAEJUtagVARIANT@@PAPAG@Z:PROC ; CWnd::get_accHelp
EXTRN	?get_accHelpTopic@CWnd@@UAEJPAPAGUtagVARIANT@@PAJ@Z:PROC ; CWnd::get_accHelpTopic
EXTRN	?get_accKeyboardShortcut@CWnd@@UAEJUtagVARIANT@@PAPAG@Z:PROC ; CWnd::get_accKeyboardShortcut
EXTRN	?get_accFocus@CWnd@@UAEJPAUtagVARIANT@@@Z:PROC	; CWnd::get_accFocus
EXTRN	?get_accSelection@CWnd@@UAEJPAUtagVARIANT@@@Z:PROC ; CWnd::get_accSelection
EXTRN	?get_accDefaultAction@CWnd@@UAEJUtagVARIANT@@PAPAG@Z:PROC ; CWnd::get_accDefaultAction
EXTRN	?accSelect@CWnd@@UAEJJUtagVARIANT@@@Z:PROC	; CWnd::accSelect
EXTRN	?accLocation@CWnd@@UAEJPAJ000UtagVARIANT@@@Z:PROC ; CWnd::accLocation
EXTRN	?accNavigate@CWnd@@UAEJJUtagVARIANT@@PAU2@@Z:PROC ; CWnd::accNavigate
EXTRN	?accHitTest@CWnd@@UAEJJJPAUtagVARIANT@@@Z:PROC	; CWnd::accHitTest
EXTRN	?accDoDefaultAction@CWnd@@UAEJUtagVARIANT@@@Z:PROC ; CWnd::accDoDefaultAction
EXTRN	?put_accName@CWnd@@UAEJUtagVARIANT@@PAG@Z:PROC	; CWnd::put_accName
EXTRN	?put_accValue@CWnd@@UAEJUtagVARIANT@@PAG@Z:PROC	; CWnd::put_accValue
EXTRN	?SetProxy@CWnd@@UAEJPAUIAccessibleProxy@@@Z:PROC ; CWnd::SetProxy
EXTRN	?CreateAccessibleProxy@CWnd@@UAEJIJPAJ@Z:PROC	; CWnd::CreateAccessibleProxy
EXTRN	?OnNotify@CWnd@@MAEHIJPAJ@Z:PROC		; CWnd::OnNotify
EXTRN	?GetSuperWndProcAddr@CWnd@@MAEPAP6GJPAUHWND__@@IIJ@ZXZ:PROC ; CWnd::GetSuperWndProcAddr
EXTRN	__imp__EnableWindow@8:PROC
EXTRN	?OnAmbientProperty@CWnd@@UAEHPAVCOleControlSite@@JPAUtagVARIANT@@@Z:PROC ; CWnd::OnAmbientProperty
EXTRN	?WindowProc@CWnd@@MAEJIIJ@Z:PROC		; CWnd::WindowProc
EXTRN	?OnWndMsg@CWnd@@MAEHIIJPAJ@Z:PROC		; CWnd::OnWndMsg
EXTRN	?DefWindowProcA@CWnd@@MAEJIIJ@Z:PROC		; CWnd::DefWindowProcA
EXTRN	?PostNcDestroy@CWnd@@MAEXXZ:PROC		; CWnd::PostNcDestroy
EXTRN	?OnChildNotify@CWnd@@MAEHIIJPAJ@Z:PROC		; CWnd::OnChildNotify
EXTRN	?OnTouchInputs@CWnd@@MAEHIPAUtagTOUCHINPUT@@@Z:PROC ; CWnd::OnTouchInputs
EXTRN	?OnTouchInput@CWnd@@MAEHVCPoint@@HHPAUtagTOUCHINPUT@@@Z:PROC ; CWnd::OnTouchInput
EXTRN	?GetGestureStatus@CWnd@@MAEKVCPoint@@@Z:PROC	; CWnd::GetGestureStatus
EXTRN	?OnGestureZoom@CWnd@@MAEHVCPoint@@J@Z:PROC	; CWnd::OnGestureZoom
EXTRN	?OnGesturePan@CWnd@@MAEHVCPoint@@0@Z:PROC	; CWnd::OnGesturePan
EXTRN	?OnGestureRotate@CWnd@@MAEHVCPoint@@N@Z:PROC	; CWnd::OnGestureRotate
EXTRN	?OnGestureTwoFingerTap@CWnd@@MAEHVCPoint@@@Z:PROC ; CWnd::OnGestureTwoFingerTap
EXTRN	?OnGesturePressAndTap@CWnd@@MAEHVCPoint@@J@Z:PROC ; CWnd::OnGesturePressAndTap
EXTRN	?IsFrameWnd@CWnd@@UBEHXZ:PROC			; CWnd::IsFrameWnd
EXTRN	?OnFinalRelease@CWnd@@UAEXXZ:PROC		; CWnd::OnFinalRelease
EXTRN	?CreateControlContainer@CWnd@@MAEHPAPAVCOleControlContainer@@@Z:PROC ; CWnd::CreateControlContainer
EXTRN	?CreateControlSite@CWnd@@MAEHPAVCOleControlContainer@@PAPAVCOleControlSite@@IABU_GUID@@@Z:PROC ; CWnd::CreateControlSite
EXTRN	?Create@CDialog@@UAEHPBDPAVCWnd@@@Z:PROC	; CDialog::Create
EXTRN	?CreateIndirect@CDialog@@UAEHPBUDLGTEMPLATE@@PAVCWnd@@PAX@Z:PROC ; CDialog::CreateIndirect
EXTRN	?CreateIndirect@CDialog@@UAEHPAXPAVCWnd@@@Z:PROC ; CDialog::CreateIndirect
EXTRN	?DoModal@CDialog@@UAEHXZ:PROC			; CDialog::DoModal
EXTRN	?OnSetFont@CDialog@@UAEXPAVCFont@@@Z:PROC	; CDialog::OnSetFont
EXTRN	?OnCancel@CDialog@@MAEXXZ:PROC			; CDialog::OnCancel
EXTRN	?OnCmdMsg@CDialog@@UAEHIHPAXPAUAFX_CMDHANDLERINFO@@@Z:PROC ; CDialog::OnCmdMsg
EXTRN	?CheckAutoCenter@CDialog@@UAEHXZ:PROC		; CDialog::CheckAutoCenter
EXTRN	?SetOccDialogInfo@CDialog@@MAEHPAU_AFX_OCC_DIALOG_INFO@@@Z:PROC ; CDialog::SetOccDialogInfo
EXTRN	?GetOccDialogInfo@CDialog@@MAEPAU_AFX_OCC_DIALOG_INFO@@XZ:PROC ; CDialog::GetOccDialogInfo
EXTRN	?PreInitDialog@CDialog@@MAEXXZ:PROC		; CDialog::PreInitDialog
EXTRN	?PreTranslateMessage@CDialogEx@@UAEHPAUtagMSG@@@Z:PROC ; CDialogEx::PreTranslateMessage
EXTRN	?OnCommand@CDialogEx@@MAEHIJ@Z:PROC		; CDialogEx::OnCommand
EXTRN	??_EeuroNatOptions@@UAEPAXI@Z:PROC		; euroNatOptions::`vector deleting destructor'
EXTRN	?DDX_Control@@YGXPAVCDataExchange@@HAAVCWnd@@@Z:PROC ; DDX_Control
EXTRN	?GetThisMessageMap@CDialogEx@@KGPBUAFX_MSGMAP@@XZ:PROC ; CDialogEx::GetThisMessageMap
EXTRN	?OnOK@CDialog@@MAEXXZ:PROC			; CDialog::OnOK
EXTRN	?EnableWindow@CWnd@@QAEHH@Z:PROC		; CWnd::EnableWindow
EXTRN	__imp__SendMessageA@16:PROC
EXTRN	?SetColor@CMFCColorButton@@QAEXK@Z:PROC		; CMFCColorButton::SetColor
EXTRN	?EnableOtherButton@CMFCColorButton@@QAEXPBDHH@Z:PROC ; CMFCColorButton::EnableOtherButton
EXTRN	?SetWindowPos@CWnd@@QAEHPBV1@HHHHI@Z:PROC	; CWnd::SetWindowPos
EXTRN	__imp__GetWindowRect@8:PROC
EXTRN	?OnInitDialog@CDialog@@UAEHXZ:PROC		; CDialog::OnInitDialog
EXTRN	?classCDialogEx@CDialogEx@@2UCRuntimeClass@@B:BYTE ; CDialogEx::classCDialogEx
;	COMDAT ??_7CComboBox@@6B@
CONST	SEGMENT
??_7CComboBox@@6B@ DD FLAT:??_R4CComboBox@@6B@		; CComboBox::`vftable'
	DD	FLAT:?GetRuntimeClass@CComboBox@@UBEPAUCRuntimeClass@@XZ
	DD	FLAT:??_ECComboBox@@UAEPAXI@Z
	DD	FLAT:?Serialize@CObject@@UAEXAAVCArchive@@@Z
	DD	FLAT:?OnCmdMsg@CCmdTarget@@UAEHIHPAXPAUAFX_CMDHANDLERINFO@@@Z
	DD	FLAT:?OnFinalRelease@CWnd@@UAEXXZ
	DD	FLAT:?IsInvokeAllowed@CCmdTarget@@UAEHJ@Z
	DD	FLAT:?GetDispatchIID@CCmdTarget@@UAEHPAU_GUID@@@Z
	DD	FLAT:?GetTypeInfoCount@CCmdTarget@@UAEIXZ
	DD	FLAT:?GetTypeLibCache@CCmdTarget@@UAEPAVCTypeLibCache@@XZ
	DD	FLAT:?GetTypeLib@CCmdTarget@@UAEJKPAPAUITypeLib@@@Z
	DD	FLAT:?GetMessageMap@CWnd@@MBEPBUAFX_MSGMAP@@XZ
	DD	FLAT:?GetCommandMap@CCmdTarget@@MBEPBUAFX_OLECMDMAP@@XZ
	DD	FLAT:?GetDispatchMap@CCmdTarget@@MBEPBUAFX_DISPMAP@@XZ
	DD	FLAT:?GetConnectionMap@CCmdTarget@@MBEPBUAFX_CONNECTIONMAP@@XZ
	DD	FLAT:?GetInterfaceMap@CWnd@@MBEPBUAFX_INTERFACEMAP@@XZ
	DD	FLAT:?GetEventSinkMap@CCmdTarget@@MBEPBUAFX_EVENTSINKMAP@@XZ
	DD	FLAT:?OnCreateAggregates@CCmdTarget@@UAEHXZ
	DD	FLAT:?GetInterfaceHook@CCmdTarget@@UAEPAUIUnknown@@PBX@Z
	DD	FLAT:?GetExtraConnectionPoints@CCmdTarget@@MAEHPAVCPtrArray@@@Z
	DD	FLAT:?GetConnectionHook@CCmdTarget@@MAEPAUIConnectionPoint@@ABU_GUID@@@Z
	DD	FLAT:?PreSubclassWindow@CWnd@@UAEXXZ
	DD	FLAT:?Create@CWnd@@UAEHPBD0KABUtagRECT@@PAV1@IPAUCCreateContext@@@Z
	DD	FLAT:?CreateEx@CWnd@@UAEHKPBD0KABUtagRECT@@PAV1@IPAX@Z
	DD	FLAT:?CreateEx@CWnd@@UAEHKPBD0KHHHHPAUHWND__@@PAUHMENU__@@PAX@Z
	DD	FLAT:?DestroyWindow@CWnd@@UAEHXZ
	DD	FLAT:?PreCreateWindow@CWnd@@UAEHAAUtagCREATESTRUCTA@@@Z
	DD	FLAT:?CalcWindowRect@CWnd@@UAEXPAUtagRECT@@I@Z
	DD	FLAT:?GetMenu@CWnd@@UBEPAVCMenu@@XZ
	DD	FLAT:?SetMenu@CWnd@@UAEHPAVCMenu@@@Z
	DD	FLAT:?OnToolHitTest@CWnd@@UBEHVCPoint@@PAUtagTOOLINFOA@@@Z
	DD	FLAT:?GetScrollBarCtrl@CWnd@@UBEPAVCScrollBar@@H@Z
	DD	FLAT:?WinHelpA@CWnd@@UAEXKI@Z
	DD	FLAT:?HtmlHelpA@CWnd@@UAEXKI@Z
	DD	FLAT:?WinHelpInternal@CWnd@@UAEXKI@Z
	DD	FLAT:?ContinueModal@CWnd@@UAEHXZ
	DD	FLAT:?EndModalLoop@CWnd@@UAEXH@Z
	DD	FLAT:?OnDrawIconicThumbnailOrLivePreview@CWnd@@UAEXAAVCDC@@VCRect@@VCSize@@HAAH@Z
	DD	FLAT:?EnsureStdObj@CWnd@@UAEJXZ
	DD	FLAT:?get_accParent@CWnd@@UAEJPAPAUIDispatch@@@Z
	DD	FLAT:?get_accChildCount@CWnd@@UAEJPAJ@Z
	DD	FLAT:?get_accChild@CWnd@@UAEJUtagVARIANT@@PAPAUIDispatch@@@Z
	DD	FLAT:?get_accName@CWnd@@UAEJUtagVARIANT@@PAPAG@Z
	DD	FLAT:?get_accValue@CWnd@@UAEJUtagVARIANT@@PAPAG@Z
	DD	FLAT:?get_accDescription@CWnd@@UAEJUtagVARIANT@@PAPAG@Z
	DD	FLAT:?get_accRole@CWnd@@UAEJUtagVARIANT@@PAU2@@Z
	DD	FLAT:?get_accState@CWnd@@UAEJUtagVARIANT@@PAU2@@Z
	DD	FLAT:?get_accHelp@CWnd@@UAEJUtagVARIANT@@PAPAG@Z
	DD	FLAT:?get_accHelpTopic@CWnd@@UAEJPAPAGUtagVARIANT@@PAJ@Z
	DD	FLAT:?get_accKeyboardShortcut@CWnd@@UAEJUtagVARIANT@@PAPAG@Z
	DD	FLAT:?get_accFocus@CWnd@@UAEJPAUtagVARIANT@@@Z
	DD	FLAT:?get_accSelection@CWnd@@UAEJPAUtagVARIANT@@@Z
	DD	FLAT:?get_accDefaultAction@CWnd@@UAEJUtagVARIANT@@PAPAG@Z
	DD	FLAT:?accSelect@CWnd@@UAEJJUtagVARIANT@@@Z
	DD	FLAT:?accLocation@CWnd@@UAEJPAJ000UtagVARIANT@@@Z
	DD	FLAT:?accNavigate@CWnd@@UAEJJUtagVARIANT@@PAU2@@Z
	DD	FLAT:?accHitTest@CWnd@@UAEJJJPAUtagVARIANT@@@Z
	DD	FLAT:?accDoDefaultAction@CWnd@@UAEJUtagVARIANT@@@Z
	DD	FLAT:?put_accName@CWnd@@UAEJUtagVARIANT@@PAG@Z
	DD	FLAT:?put_accValue@CWnd@@UAEJUtagVARIANT@@PAG@Z
	DD	FLAT:?SetProxy@CWnd@@UAEJPAUIAccessibleProxy@@@Z
	DD	FLAT:?CreateAccessibleProxy@CWnd@@UAEJIJPAJ@Z
	DD	FLAT:?OnCommand@CWnd@@MAEHIJ@Z
	DD	FLAT:?OnNotify@CWnd@@MAEHIJPAJ@Z
	DD	FLAT:?GetSuperWndProcAddr@CWnd@@MAEPAP6GJPAUHWND__@@IIJ@ZXZ
	DD	FLAT:?DoDataExchange@CWnd@@MAEXPAVCDataExchange@@@Z
	DD	FLAT:?BeginModalState@CWnd@@UAEXXZ
	DD	FLAT:?EndModalState@CWnd@@UAEXXZ
	DD	FLAT:?PreTranslateMessage@CWnd@@UAEHPAUtagMSG@@@Z
	DD	FLAT:?OnAmbientProperty@CWnd@@UAEHPAVCOleControlSite@@JPAUtagVARIANT@@@Z
	DD	FLAT:?WindowProc@CWnd@@MAEJIIJ@Z
	DD	FLAT:?OnWndMsg@CWnd@@MAEHIIJPAJ@Z
	DD	FLAT:?DefWindowProcA@CWnd@@MAEJIIJ@Z
	DD	FLAT:?PostNcDestroy@CWnd@@MAEXXZ
	DD	FLAT:?OnChildNotify@CComboBox@@MAEHIIJPAJ@Z
	DD	FLAT:?OnTouchInputs@CWnd@@MAEHIPAUtagTOUCHINPUT@@@Z
	DD	FLAT:?OnTouchInput@CWnd@@MAEHVCPoint@@HHPAUtagTOUCHINPUT@@@Z
	DD	FLAT:?GetGestureStatus@CWnd@@MAEKVCPoint@@@Z
	DD	FLAT:?OnGestureZoom@CWnd@@MAEHVCPoint@@J@Z
	DD	FLAT:?OnGesturePan@CWnd@@MAEHVCPoint@@0@Z
	DD	FLAT:?OnGestureRotate@CWnd@@MAEHVCPoint@@N@Z
	DD	FLAT:?OnGestureTwoFingerTap@CWnd@@MAEHVCPoint@@@Z
	DD	FLAT:?OnGesturePressAndTap@CWnd@@MAEHVCPoint@@J@Z
	DD	FLAT:?CheckAutoCenter@CWnd@@UAEHXZ
	DD	FLAT:?IsFrameWnd@CWnd@@UBEHXZ
	DD	FLAT:?CreateControlContainer@CWnd@@MAEHPAPAVCOleControlContainer@@@Z
	DD	FLAT:?CreateControlSite@CWnd@@MAEHPAVCOleControlContainer@@PAPAVCOleControlSite@@IABU_GUID@@@Z
	DD	FLAT:?SetOccDialogInfo@CWnd@@MAEHPAU_AFX_OCC_DIALOG_INFO@@@Z
	DD	FLAT:?GetOccDialogInfo@CWnd@@MAEPAU_AFX_OCC_DIALOG_INFO@@XZ
	DD	FLAT:?Create@CComboBox@@UAEHKABUtagRECT@@PAVCWnd@@I@Z
	DD	FLAT:?DrawItem@CComboBox@@UAEXPAUtagDRAWITEMSTRUCT@@@Z
	DD	FLAT:?MeasureItem@CComboBox@@UAEXPAUtagMEASUREITEMSTRUCT@@@Z
	DD	FLAT:?CompareItem@CComboBox@@UAEHPAUtagCOMPAREITEMSTRUCT@@@Z
	DD	FLAT:?DeleteItem@CComboBox@@UAEXPAUtagDELETEITEMSTRUCT@@@Z
CONST	ENDS
;	COMDAT ??_R4CComboBox@@6B@
rdata$r	SEGMENT
??_R4CComboBox@@6B@ DD 00H				; CComboBox::`RTTI Complete Object Locator'
	DD	00H
	DD	00H
	DD	FLAT:??_R0?AVCComboBox@@@8
	DD	FLAT:??_R3CComboBox@@8
rdata$r	ENDS
;	COMDAT ??_R3CComboBox@@8
rdata$r	SEGMENT
??_R3CComboBox@@8 DD 00H				; CComboBox::`RTTI Class Hierarchy Descriptor'
	DD	00H
	DD	04H
	DD	FLAT:??_R2CComboBox@@8
rdata$r	ENDS
;	COMDAT ??_R2CComboBox@@8
rdata$r	SEGMENT
??_R2CComboBox@@8 DD FLAT:??_R1A@?0A@EA@CComboBox@@8	; CComboBox::`RTTI Base Class Array'
	DD	FLAT:??_R1A@?0A@EA@CWnd@@8
	DD	FLAT:??_R1A@?0A@EA@CCmdTarget@@8
	DD	FLAT:??_R1A@?0A@EA@CObject@@8
rdata$r	ENDS
;	COMDAT ??_R1A@?0A@EA@CComboBox@@8
rdata$r	SEGMENT
??_R1A@?0A@EA@CComboBox@@8 DD FLAT:??_R0?AVCComboBox@@@8 ; CComboBox::`RTTI Base Class Descriptor at (0,-1,0,64)'
	DD	03H
	DD	00H
	DD	0ffffffffH
	DD	00H
	DD	040H
	DD	FLAT:??_R3CComboBox@@8
rdata$r	ENDS
;	COMDAT ??_R0?AVCComboBox@@@8
_DATA	SEGMENT
??_R0?AVCComboBox@@@8 DD FLAT:??_7type_info@@6B@	; CComboBox `RTTI Type Descriptor'
	DD	00H
	DB	'.?AVCComboBox@@', 00H
_DATA	ENDS
;	COMDAT ??_7CButton@@6B@
CONST	SEGMENT
??_7CButton@@6B@ DD FLAT:??_R4CButton@@6B@		; CButton::`vftable'
	DD	FLAT:?GetRuntimeClass@CButton@@UBEPAUCRuntimeClass@@XZ
	DD	FLAT:??_ECButton@@UAEPAXI@Z
	DD	FLAT:?Serialize@CObject@@UAEXAAVCArchive@@@Z
	DD	FLAT:?OnCmdMsg@CCmdTarget@@UAEHIHPAXPAUAFX_CMDHANDLERINFO@@@Z
	DD	FLAT:?OnFinalRelease@CWnd@@UAEXXZ
	DD	FLAT:?IsInvokeAllowed@CCmdTarget@@UAEHJ@Z
	DD	FLAT:?GetDispatchIID@CCmdTarget@@UAEHPAU_GUID@@@Z
	DD	FLAT:?GetTypeInfoCount@CCmdTarget@@UAEIXZ
	DD	FLAT:?GetTypeLibCache@CCmdTarget@@UAEPAVCTypeLibCache@@XZ
	DD	FLAT:?GetTypeLib@CCmdTarget@@UAEJKPAPAUITypeLib@@@Z
	DD	FLAT:?GetMessageMap@CWnd@@MBEPBUAFX_MSGMAP@@XZ
	DD	FLAT:?GetCommandMap@CCmdTarget@@MBEPBUAFX_OLECMDMAP@@XZ
	DD	FLAT:?GetDispatchMap@CCmdTarget@@MBEPBUAFX_DISPMAP@@XZ
	DD	FLAT:?GetConnectionMap@CCmdTarget@@MBEPBUAFX_CONNECTIONMAP@@XZ
	DD	FLAT:?GetInterfaceMap@CWnd@@MBEPBUAFX_INTERFACEMAP@@XZ
	DD	FLAT:?GetEventSinkMap@CCmdTarget@@MBEPBUAFX_EVENTSINKMAP@@XZ
	DD	FLAT:?OnCreateAggregates@CCmdTarget@@UAEHXZ
	DD	FLAT:?GetInterfaceHook@CCmdTarget@@UAEPAUIUnknown@@PBX@Z
	DD	FLAT:?GetExtraConnectionPoints@CCmdTarget@@MAEHPAVCPtrArray@@@Z
	DD	FLAT:?GetConnectionHook@CCmdTarget@@MAEPAUIConnectionPoint@@ABU_GUID@@@Z
	DD	FLAT:?PreSubclassWindow@CWnd@@UAEXXZ
	DD	FLAT:?Create@CWnd@@UAEHPBD0KABUtagRECT@@PAV1@IPAUCCreateContext@@@Z
	DD	FLAT:?CreateEx@CWnd@@UAEHKPBD0KABUtagRECT@@PAV1@IPAX@Z
	DD	FLAT:?CreateEx@CWnd@@UAEHKPBD0KHHHHPAUHWND__@@PAUHMENU__@@PAX@Z
	DD	FLAT:?DestroyWindow@CWnd@@UAEHXZ
	DD	FLAT:?PreCreateWindow@CWnd@@UAEHAAUtagCREATESTRUCTA@@@Z
	DD	FLAT:?CalcWindowRect@CWnd@@UAEXPAUtagRECT@@I@Z
	DD	FLAT:?GetMenu@CWnd@@UBEPAVCMenu@@XZ
	DD	FLAT:?SetMenu@CWnd@@UAEHPAVCMenu@@@Z
	DD	FLAT:?OnToolHitTest@CWnd@@UBEHVCPoint@@PAUtagTOOLINFOA@@@Z
	DD	FLAT:?GetScrollBarCtrl@CWnd@@UBEPAVCScrollBar@@H@Z
	DD	FLAT:?WinHelpA@CWnd@@UAEXKI@Z
	DD	FLAT:?HtmlHelpA@CWnd@@UAEXKI@Z
	DD	FLAT:?WinHelpInternal@CWnd@@UAEXKI@Z
	DD	FLAT:?ContinueModal@CWnd@@UAEHXZ
	DD	FLAT:?EndModalLoop@CWnd@@UAEXH@Z
	DD	FLAT:?OnDrawIconicThumbnailOrLivePreview@CWnd@@UAEXAAVCDC@@VCRect@@VCSize@@HAAH@Z
	DD	FLAT:?EnsureStdObj@CWnd@@UAEJXZ
	DD	FLAT:?get_accParent@CWnd@@UAEJPAPAUIDispatch@@@Z
	DD	FLAT:?get_accChildCount@CWnd@@UAEJPAJ@Z
	DD	FLAT:?get_accChild@CWnd@@UAEJUtagVARIANT@@PAPAUIDispatch@@@Z
	DD	FLAT:?get_accName@CWnd@@UAEJUtagVARIANT@@PAPAG@Z
	DD	FLAT:?get_accValue@CWnd@@UAEJUtagVARIANT@@PAPAG@Z
	DD	FLAT:?get_accDescription@CWnd@@UAEJUtagVARIANT@@PAPAG@Z
	DD	FLAT:?get_accRole@CWnd@@UAEJUtagVARIANT@@PAU2@@Z
	DD	FLAT:?get_accState@CWnd@@UAEJUtagVARIANT@@PAU2@@Z
	DD	FLAT:?get_accHelp@CWnd@@UAEJUtagVARIANT@@PAPAG@Z
	DD	FLAT:?get_accHelpTopic@CWnd@@UAEJPAPAGUtagVARIANT@@PAJ@Z
	DD	FLAT:?get_accKeyboardShortcut@CWnd@@UAEJUtagVARIANT@@PAPAG@Z
	DD	FLAT:?get_accFocus@CWnd@@UAEJPAUtagVARIANT@@@Z
	DD	FLAT:?get_accSelection@CWnd@@UAEJPAUtagVARIANT@@@Z
	DD	FLAT:?get_accDefaultAction@CWnd@@UAEJUtagVARIANT@@PAPAG@Z
	DD	FLAT:?accSelect@CWnd@@UAEJJUtagVARIANT@@@Z
	DD	FLAT:?accLocation@CWnd@@UAEJPAJ000UtagVARIANT@@@Z
	DD	FLAT:?accNavigate@CWnd@@UAEJJUtagVARIANT@@PAU2@@Z
	DD	FLAT:?accHitTest@CWnd@@UAEJJJPAUtagVARIANT@@@Z
	DD	FLAT:?accDoDefaultAction@CWnd@@UAEJUtagVARIANT@@@Z
	DD	FLAT:?put_accName@CWnd@@UAEJUtagVARIANT@@PAG@Z
	DD	FLAT:?put_accValue@CWnd@@UAEJUtagVARIANT@@PAG@Z
	DD	FLAT:?SetProxy@CWnd@@UAEJPAUIAccessibleProxy@@@Z
	DD	FLAT:?CreateAccessibleProxy@CWnd@@UAEJIJPAJ@Z
	DD	FLAT:?OnCommand@CWnd@@MAEHIJ@Z
	DD	FLAT:?OnNotify@CWnd@@MAEHIJPAJ@Z
	DD	FLAT:?GetSuperWndProcAddr@CWnd@@MAEPAP6GJPAUHWND__@@IIJ@ZXZ
	DD	FLAT:?DoDataExchange@CWnd@@MAEXPAVCDataExchange@@@Z
	DD	FLAT:?BeginModalState@CWnd@@UAEXXZ
	DD	FLAT:?EndModalState@CWnd@@UAEXXZ
	DD	FLAT:?PreTranslateMessage@CWnd@@UAEHPAUtagMSG@@@Z
	DD	FLAT:?OnAmbientProperty@CWnd@@UAEHPAVCOleControlSite@@JPAUtagVARIANT@@@Z
	DD	FLAT:?WindowProc@CWnd@@MAEJIIJ@Z
	DD	FLAT:?OnWndMsg@CWnd@@MAEHIIJPAJ@Z
	DD	FLAT:?DefWindowProcA@CWnd@@MAEJIIJ@Z
	DD	FLAT:?PostNcDestroy@CWnd@@MAEXXZ
	DD	FLAT:?OnChildNotify@CButton@@MAEHIIJPAJ@Z
	DD	FLAT:?OnTouchInputs@CWnd@@MAEHIPAUtagTOUCHINPUT@@@Z
	DD	FLAT:?OnTouchInput@CWnd@@MAEHVCPoint@@HHPAUtagTOUCHINPUT@@@Z
	DD	FLAT:?GetGestureStatus@CWnd@@MAEKVCPoint@@@Z
	DD	FLAT:?OnGestureZoom@CWnd@@MAEHVCPoint@@J@Z
	DD	FLAT:?OnGesturePan@CWnd@@MAEHVCPoint@@0@Z
	DD	FLAT:?OnGestureRotate@CWnd@@MAEHVCPoint@@N@Z
	DD	FLAT:?OnGestureTwoFingerTap@CWnd@@MAEHVCPoint@@@Z
	DD	FLAT:?OnGesturePressAndTap@CWnd@@MAEHVCPoint@@J@Z
	DD	FLAT:?CheckAutoCenter@CWnd@@UAEHXZ
	DD	FLAT:?IsFrameWnd@CWnd@@UBEHXZ
	DD	FLAT:?CreateControlContainer@CWnd@@MAEHPAPAVCOleControlContainer@@@Z
	DD	FLAT:?CreateControlSite@CWnd@@MAEHPAVCOleControlContainer@@PAPAVCOleControlSite@@IABU_GUID@@@Z
	DD	FLAT:?SetOccDialogInfo@CWnd@@MAEHPAU_AFX_OCC_DIALOG_INFO@@@Z
	DD	FLAT:?GetOccDialogInfo@CWnd@@MAEPAU_AFX_OCC_DIALOG_INFO@@XZ
	DD	FLAT:?Create@CButton@@UAEHPBDKABUtagRECT@@PAVCWnd@@I@Z
	DD	FLAT:?DrawItem@CButton@@UAEXPAUtagDRAWITEMSTRUCT@@@Z
CONST	ENDS
;	COMDAT ??_R4CButton@@6B@
rdata$r	SEGMENT
??_R4CButton@@6B@ DD 00H				; CButton::`RTTI Complete Object Locator'
	DD	00H
	DD	00H
	DD	FLAT:??_R0?AVCButton@@@8
	DD	FLAT:??_R3CButton@@8
rdata$r	ENDS
;	COMDAT ??_R3CButton@@8
rdata$r	SEGMENT
??_R3CButton@@8 DD 00H					; CButton::`RTTI Class Hierarchy Descriptor'
	DD	00H
	DD	04H
	DD	FLAT:??_R2CButton@@8
rdata$r	ENDS
;	COMDAT ??_R2CButton@@8
rdata$r	SEGMENT
??_R2CButton@@8 DD FLAT:??_R1A@?0A@EA@CButton@@8	; CButton::`RTTI Base Class Array'
	DD	FLAT:??_R1A@?0A@EA@CWnd@@8
	DD	FLAT:??_R1A@?0A@EA@CCmdTarget@@8
	DD	FLAT:??_R1A@?0A@EA@CObject@@8
rdata$r	ENDS
;	COMDAT ??_R1A@?0A@EA@CButton@@8
rdata$r	SEGMENT
??_R1A@?0A@EA@CButton@@8 DD FLAT:??_R0?AVCButton@@@8	; CButton::`RTTI Base Class Descriptor at (0,-1,0,64)'
	DD	03H
	DD	00H
	DD	0ffffffffH
	DD	00H
	DD	040H
	DD	FLAT:??_R3CButton@@8
rdata$r	ENDS
;	COMDAT ??_R0?AVCButton@@@8
_DATA	SEGMENT
??_R0?AVCButton@@@8 DD FLAT:??_7type_info@@6B@		; CButton `RTTI Type Descriptor'
	DD	00H
	DB	'.?AVCButton@@', 00H
_DATA	ENDS
;	COMDAT ??_7CBrush@@6B@
CONST	SEGMENT
??_7CBrush@@6B@ DD FLAT:??_R4CBrush@@6B@		; CBrush::`vftable'
	DD	FLAT:?GetRuntimeClass@CBrush@@UBEPAUCRuntimeClass@@XZ
	DD	FLAT:??_ECBrush@@UAEPAXI@Z
	DD	FLAT:?Serialize@CObject@@UAEXAAVCArchive@@@Z
CONST	ENDS
;	COMDAT ??_R4CBrush@@6B@
rdata$r	SEGMENT
??_R4CBrush@@6B@ DD 00H					; CBrush::`RTTI Complete Object Locator'
	DD	00H
	DD	00H
	DD	FLAT:??_R0?AVCBrush@@@8
	DD	FLAT:??_R3CBrush@@8
rdata$r	ENDS
;	COMDAT ??_R3CBrush@@8
rdata$r	SEGMENT
??_R3CBrush@@8 DD 00H					; CBrush::`RTTI Class Hierarchy Descriptor'
	DD	00H
	DD	03H
	DD	FLAT:??_R2CBrush@@8
rdata$r	ENDS
;	COMDAT ??_R2CBrush@@8
rdata$r	SEGMENT
??_R2CBrush@@8 DD FLAT:??_R1A@?0A@EA@CBrush@@8		; CBrush::`RTTI Base Class Array'
	DD	FLAT:??_R1A@?0A@EA@CGdiObject@@8
	DD	FLAT:??_R1A@?0A@EA@CObject@@8
rdata$r	ENDS
;	COMDAT ??_R1A@?0A@EA@CBrush@@8
rdata$r	SEGMENT
??_R1A@?0A@EA@CBrush@@8 DD FLAT:??_R0?AVCBrush@@@8	; CBrush::`RTTI Base Class Descriptor at (0,-1,0,64)'
	DD	02H
	DD	00H
	DD	0ffffffffH
	DD	00H
	DD	040H
	DD	FLAT:??_R3CBrush@@8
rdata$r	ENDS
;	COMDAT ??_R0?AVCBrush@@@8
_DATA	SEGMENT
??_R0?AVCBrush@@@8 DD FLAT:??_7type_info@@6B@		; CBrush `RTTI Type Descriptor'
	DD	00H
	DB	'.?AVCBrush@@', 00H
_DATA	ENDS
;	COMDAT ??_7CGdiObject@@6B@
CONST	SEGMENT
??_7CGdiObject@@6B@ DD FLAT:??_R4CGdiObject@@6B@	; CGdiObject::`vftable'
	DD	FLAT:?GetRuntimeClass@CGdiObject@@UBEPAUCRuntimeClass@@XZ
	DD	FLAT:??_ECGdiObject@@UAEPAXI@Z
	DD	FLAT:?Serialize@CObject@@UAEXAAVCArchive@@@Z
CONST	ENDS
;	COMDAT ??_R4CGdiObject@@6B@
rdata$r	SEGMENT
??_R4CGdiObject@@6B@ DD 00H				; CGdiObject::`RTTI Complete Object Locator'
	DD	00H
	DD	00H
	DD	FLAT:??_R0?AVCGdiObject@@@8
	DD	FLAT:??_R3CGdiObject@@8
rdata$r	ENDS
;	COMDAT ??_R3CGdiObject@@8
rdata$r	SEGMENT
??_R3CGdiObject@@8 DD 00H				; CGdiObject::`RTTI Class Hierarchy Descriptor'
	DD	00H
	DD	02H
	DD	FLAT:??_R2CGdiObject@@8
rdata$r	ENDS
;	COMDAT ??_R2CGdiObject@@8
rdata$r	SEGMENT
??_R2CGdiObject@@8 DD FLAT:??_R1A@?0A@EA@CGdiObject@@8	; CGdiObject::`RTTI Base Class Array'
	DD	FLAT:??_R1A@?0A@EA@CObject@@8
rdata$r	ENDS
;	COMDAT ??_R1A@?0A@EA@CGdiObject@@8
rdata$r	SEGMENT
??_R1A@?0A@EA@CGdiObject@@8 DD FLAT:??_R0?AVCGdiObject@@@8 ; CGdiObject::`RTTI Base Class Descriptor at (0,-1,0,64)'
	DD	01H
	DD	00H
	DD	0ffffffffH
	DD	00H
	DD	040H
	DD	FLAT:??_R3CGdiObject@@8
rdata$r	ENDS
;	COMDAT ??_R0?AVCGdiObject@@@8
_DATA	SEGMENT
??_R0?AVCGdiObject@@@8 DD FLAT:??_7type_info@@6B@	; CGdiObject `RTTI Type Descriptor'
	DD	00H
	DB	'.?AVCGdiObject@@', 00H
_DATA	ENDS
;	COMDAT ??_C@_0L@LBHJMCDF@?$CFs?5?$CI?$CFs?3?$CFd?$CJ?$AA@
CONST	SEGMENT
??_C@_0L@LBHJMCDF@?$CFs?5?$CI?$CFs?3?$CFd?$CJ?$AA@ DB '%s (%s:%d)', 00H ; `string'
CONST	ENDS
;	COMDAT ??_C@_0O@KHJMBFME@?$CFs?5?$CI?$CFs?3?$CFd?$CJ?6?$CFs?$AA@
CONST	SEGMENT
??_C@_0O@KHJMBFME@?$CFs?5?$CI?$CFs?3?$CFd?$CJ?6?$CFs?$AA@ DB '%s (%s:%d)', 0aH
	DB	'%s', 00H					; `string'
CONST	ENDS
;	COMDAT ??_C@_0BP@OIEOKIDM@Exception?5thrown?5in?5destructor?$AA@
CONST	SEGMENT
??_C@_0BP@OIEOKIDM@Exception?5thrown?5in?5destructor?$AA@ DB 'Exception t'
	DB	'hrown in destructor', 00H			; `string'
CONST	ENDS
;	COMDAT ??_C@_0FC@PBLIGINI@C?3?2Program?5Files?5?$CIx86?$CJ?2Microsoft@
CONST	SEGMENT
??_C@_0FC@PBLIGINI@C?3?2Program?5Files?5?$CIx86?$CJ?2Microsoft@ DB 'C:\Pr'
	DB	'ogram Files (x86)\Microsoft Visual Studio 10.0\VC\atlmfc\incl'
	DB	'ude\afxwin1.inl', 00H			; `string'
CONST	ENDS
;	COMDAT ??_R0PAVCException@@@8
_DATA	SEGMENT
??_R0PAVCException@@@8 DD FLAT:??_7type_info@@6B@	; CException * `RTTI Type Descriptor'
	DD	00H
	DB	'.PAVCException@@', 00H
_DATA	ENDS
;	COMDAT ??_7euroNatOptions@@6B@
CONST	SEGMENT
??_7euroNatOptions@@6B@ DD FLAT:??_R4euroNatOptions@@6B@ ; euroNatOptions::`vftable'
	DD	FLAT:?GetRuntimeClass@euroNatOptions@@UBEPAUCRuntimeClass@@XZ
	DD	FLAT:??_EeuroNatOptions@@UAEPAXI@Z
	DD	FLAT:?Serialize@CObject@@UAEXAAVCArchive@@@Z
	DD	FLAT:?OnCmdMsg@CDialog@@UAEHIHPAXPAUAFX_CMDHANDLERINFO@@@Z
	DD	FLAT:?OnFinalRelease@CWnd@@UAEXXZ
	DD	FLAT:?IsInvokeAllowed@CCmdTarget@@UAEHJ@Z
	DD	FLAT:?GetDispatchIID@CCmdTarget@@UAEHPAU_GUID@@@Z
	DD	FLAT:?GetTypeInfoCount@CCmdTarget@@UAEIXZ
	DD	FLAT:?GetTypeLibCache@CCmdTarget@@UAEPAVCTypeLibCache@@XZ
	DD	FLAT:?GetTypeLib@CCmdTarget@@UAEJKPAPAUITypeLib@@@Z
	DD	FLAT:?GetMessageMap@euroNatOptions@@MBEPBUAFX_MSGMAP@@XZ
	DD	FLAT:?GetCommandMap@CCmdTarget@@MBEPBUAFX_OLECMDMAP@@XZ
	DD	FLAT:?GetDispatchMap@CCmdTarget@@MBEPBUAFX_DISPMAP@@XZ
	DD	FLAT:?GetConnectionMap@CCmdTarget@@MBEPBUAFX_CONNECTIONMAP@@XZ
	DD	FLAT:?GetInterfaceMap@CWnd@@MBEPBUAFX_INTERFACEMAP@@XZ
	DD	FLAT:?GetEventSinkMap@CCmdTarget@@MBEPBUAFX_EVENTSINKMAP@@XZ
	DD	FLAT:?OnCreateAggregates@CCmdTarget@@UAEHXZ
	DD	FLAT:?GetInterfaceHook@CCmdTarget@@UAEPAUIUnknown@@PBX@Z
	DD	FLAT:?GetExtraConnectionPoints@CCmdTarget@@MAEHPAVCPtrArray@@@Z
	DD	FLAT:?GetConnectionHook@CCmdTarget@@MAEPAUIConnectionPoint@@ABU_GUID@@@Z
	DD	FLAT:?PreSubclassWindow@CWnd@@UAEXXZ
	DD	FLAT:?Create@CWnd@@UAEHPBD0KABUtagRECT@@PAV1@IPAUCCreateContext@@@Z
	DD	FLAT:?CreateEx@CWnd@@UAEHKPBD0KABUtagRECT@@PAV1@IPAX@Z
	DD	FLAT:?CreateEx@CWnd@@UAEHKPBD0KHHHHPAUHWND__@@PAUHMENU__@@PAX@Z
	DD	FLAT:?DestroyWindow@CWnd@@UAEHXZ
	DD	FLAT:?PreCreateWindow@CWnd@@UAEHAAUtagCREATESTRUCTA@@@Z
	DD	FLAT:?CalcWindowRect@CWnd@@UAEXPAUtagRECT@@I@Z
	DD	FLAT:?GetMenu@CWnd@@UBEPAVCMenu@@XZ
	DD	FLAT:?SetMenu@CWnd@@UAEHPAVCMenu@@@Z
	DD	FLAT:?OnToolHitTest@CWnd@@UBEHVCPoint@@PAUtagTOOLINFOA@@@Z
	DD	FLAT:?GetScrollBarCtrl@CWnd@@UBEPAVCScrollBar@@H@Z
	DD	FLAT:?WinHelpA@CWnd@@UAEXKI@Z
	DD	FLAT:?HtmlHelpA@CWnd@@UAEXKI@Z
	DD	FLAT:?WinHelpInternal@CWnd@@UAEXKI@Z
	DD	FLAT:?ContinueModal@CWnd@@UAEHXZ
	DD	FLAT:?EndModalLoop@CWnd@@UAEXH@Z
	DD	FLAT:?OnDrawIconicThumbnailOrLivePreview@CWnd@@UAEXAAVCDC@@VCRect@@VCSize@@HAAH@Z
	DD	FLAT:?EnsureStdObj@CWnd@@UAEJXZ
	DD	FLAT:?get_accParent@CWnd@@UAEJPAPAUIDispatch@@@Z
	DD	FLAT:?get_accChildCount@CWnd@@UAEJPAJ@Z
	DD	FLAT:?get_accChild@CWnd@@UAEJUtagVARIANT@@PAPAUIDispatch@@@Z
	DD	FLAT:?get_accName@CWnd@@UAEJUtagVARIANT@@PAPAG@Z
	DD	FLAT:?get_accValue@CWnd@@UAEJUtagVARIANT@@PAPAG@Z
	DD	FLAT:?get_accDescription@CWnd@@UAEJUtagVARIANT@@PAPAG@Z
	DD	FLAT:?get_accRole@CWnd@@UAEJUtagVARIANT@@PAU2@@Z
	DD	FLAT:?get_accState@CWnd@@UAEJUtagVARIANT@@PAU2@@Z
	DD	FLAT:?get_accHelp@CWnd@@UAEJUtagVARIANT@@PAPAG@Z
	DD	FLAT:?get_accHelpTopic@CWnd@@UAEJPAPAGUtagVARIANT@@PAJ@Z
	DD	FLAT:?get_accKeyboardShortcut@CWnd@@UAEJUtagVARIANT@@PAPAG@Z
	DD	FLAT:?get_accFocus@CWnd@@UAEJPAUtagVARIANT@@@Z
	DD	FLAT:?get_accSelection@CWnd@@UAEJPAUtagVARIANT@@@Z
	DD	FLAT:?get_accDefaultAction@CWnd@@UAEJUtagVARIANT@@PAPAG@Z
	DD	FLAT:?accSelect@CWnd@@UAEJJUtagVARIANT@@@Z
	DD	FLAT:?accLocation@CWnd@@UAEJPAJ000UtagVARIANT@@@Z
	DD	FLAT:?accNavigate@CWnd@@UAEJJUtagVARIANT@@PAU2@@Z
	DD	FLAT:?accHitTest@CWnd@@UAEJJJPAUtagVARIANT@@@Z
	DD	FLAT:?accDoDefaultAction@CWnd@@UAEJUtagVARIANT@@@Z
	DD	FLAT:?put_accName@CWnd@@UAEJUtagVARIANT@@PAG@Z
	DD	FLAT:?put_accValue@CWnd@@UAEJUtagVARIANT@@PAG@Z
	DD	FLAT:?SetProxy@CWnd@@UAEJPAUIAccessibleProxy@@@Z
	DD	FLAT:?CreateAccessibleProxy@CWnd@@UAEJIJPAJ@Z
	DD	FLAT:?OnCommand@CDialogEx@@MAEHIJ@Z
	DD	FLAT:?OnNotify@CWnd@@MAEHIJPAJ@Z
	DD	FLAT:?GetSuperWndProcAddr@CWnd@@MAEPAP6GJPAUHWND__@@IIJ@ZXZ
	DD	FLAT:?DoDataExchange@euroNatOptions@@MAEXPAVCDataExchange@@@Z
	DD	FLAT:?BeginModalState@CWnd@@UAEXXZ
	DD	FLAT:?EndModalState@CWnd@@UAEXXZ
	DD	FLAT:?PreTranslateMessage@CDialogEx@@UAEHPAUtagMSG@@@Z
	DD	FLAT:?OnAmbientProperty@CWnd@@UAEHPAVCOleControlSite@@JPAUtagVARIANT@@@Z
	DD	FLAT:?WindowProc@CWnd@@MAEJIIJ@Z
	DD	FLAT:?OnWndMsg@CWnd@@MAEHIIJPAJ@Z
	DD	FLAT:?DefWindowProcA@CWnd@@MAEJIIJ@Z
	DD	FLAT:?PostNcDestroy@CWnd@@MAEXXZ
	DD	FLAT:?OnChildNotify@CWnd@@MAEHIIJPAJ@Z
	DD	FLAT:?OnTouchInputs@CWnd@@MAEHIPAUtagTOUCHINPUT@@@Z
	DD	FLAT:?OnTouchInput@CWnd@@MAEHVCPoint@@HHPAUtagTOUCHINPUT@@@Z
	DD	FLAT:?GetGestureStatus@CWnd@@MAEKVCPoint@@@Z
	DD	FLAT:?OnGestureZoom@CWnd@@MAEHVCPoint@@J@Z
	DD	FLAT:?OnGesturePan@CWnd@@MAEHVCPoint@@0@Z
	DD	FLAT:?OnGestureRotate@CWnd@@MAEHVCPoint@@N@Z
	DD	FLAT:?OnGestureTwoFingerTap@CWnd@@MAEHVCPoint@@@Z
	DD	FLAT:?OnGesturePressAndTap@CWnd@@MAEHVCPoint@@J@Z
	DD	FLAT:?CheckAutoCenter@CDialog@@UAEHXZ
	DD	FLAT:?IsFrameWnd@CWnd@@UBEHXZ
	DD	FLAT:?CreateControlContainer@CWnd@@MAEHPAPAVCOleControlContainer@@@Z
	DD	FLAT:?CreateControlSite@CWnd@@MAEHPAVCOleControlContainer@@PAPAVCOleControlSite@@IABU_GUID@@@Z
	DD	FLAT:?SetOccDialogInfo@CDialog@@MAEHPAU_AFX_OCC_DIALOG_INFO@@@Z
	DD	FLAT:?GetOccDialogInfo@CDialog@@MAEPAU_AFX_OCC_DIALOG_INFO@@XZ
	DD	FLAT:?Create@CDialog@@UAEHIPAVCWnd@@@Z
	DD	FLAT:?Create@CDialog@@UAEHPBDPAVCWnd@@@Z
	DD	FLAT:?CreateIndirect@CDialog@@UAEHPAXPAVCWnd@@@Z
	DD	FLAT:?CreateIndirect@CDialog@@UAEHPBUDLGTEMPLATE@@PAVCWnd@@PAX@Z
	DD	FLAT:?DoModal@CDialog@@UAEHXZ
	DD	FLAT:?OnInitDialog@euroNatOptions@@UAEHXZ
	DD	FLAT:?OnSetFont@CDialog@@UAEXPAVCFont@@@Z
	DD	FLAT:?OnOK@CDialog@@MAEXXZ
	DD	FLAT:?OnCancel@CDialog@@MAEXXZ
	DD	FLAT:?PreInitDialog@CDialog@@MAEXXZ
CONST	ENDS
;	COMDAT ??_R4euroNatOptions@@6B@
rdata$r	SEGMENT
??_R4euroNatOptions@@6B@ DD 00H				; euroNatOptions::`RTTI Complete Object Locator'
	DD	00H
	DD	00H
	DD	FLAT:??_R0?AVeuroNatOptions@@@8
	DD	FLAT:??_R3euroNatOptions@@8
rdata$r	ENDS
;	COMDAT ??_R3euroNatOptions@@8
rdata$r	SEGMENT
??_R3euroNatOptions@@8 DD 00H				; euroNatOptions::`RTTI Class Hierarchy Descriptor'
	DD	00H
	DD	06H
	DD	FLAT:??_R2euroNatOptions@@8
rdata$r	ENDS
;	COMDAT ??_R2euroNatOptions@@8
rdata$r	SEGMENT
??_R2euroNatOptions@@8 DD FLAT:??_R1A@?0A@EA@euroNatOptions@@8 ; euroNatOptions::`RTTI Base Class Array'
	DD	FLAT:??_R1A@?0A@EA@CDialogEx@@8
	DD	FLAT:??_R1A@?0A@EA@CDialog@@8
	DD	FLAT:??_R1A@?0A@EA@CWnd@@8
	DD	FLAT:??_R1A@?0A@EA@CCmdTarget@@8
	DD	FLAT:??_R1A@?0A@EA@CObject@@8
rdata$r	ENDS
;	COMDAT ??_R1A@?0A@EA@CDialogEx@@8
rdata$r	SEGMENT
??_R1A@?0A@EA@CDialogEx@@8 DD FLAT:??_R0?AVCDialogEx@@@8 ; CDialogEx::`RTTI Base Class Descriptor at (0,-1,0,64)'
	DD	04H
	DD	00H
	DD	0ffffffffH
	DD	00H
	DD	040H
	DD	FLAT:??_R3CDialogEx@@8
rdata$r	ENDS
;	COMDAT ??_R3CDialogEx@@8
rdata$r	SEGMENT
??_R3CDialogEx@@8 DD 00H				; CDialogEx::`RTTI Class Hierarchy Descriptor'
	DD	00H
	DD	05H
	DD	FLAT:??_R2CDialogEx@@8
rdata$r	ENDS
;	COMDAT ??_R2CDialogEx@@8
rdata$r	SEGMENT
??_R2CDialogEx@@8 DD FLAT:??_R1A@?0A@EA@CDialogEx@@8	; CDialogEx::`RTTI Base Class Array'
	DD	FLAT:??_R1A@?0A@EA@CDialog@@8
	DD	FLAT:??_R1A@?0A@EA@CWnd@@8
	DD	FLAT:??_R1A@?0A@EA@CCmdTarget@@8
	DD	FLAT:??_R1A@?0A@EA@CObject@@8
rdata$r	ENDS
;	COMDAT ??_R1A@?0A@EA@CDialog@@8
rdata$r	SEGMENT
??_R1A@?0A@EA@CDialog@@8 DD FLAT:??_R0?AVCDialog@@@8	; CDialog::`RTTI Base Class Descriptor at (0,-1,0,64)'
	DD	03H
	DD	00H
	DD	0ffffffffH
	DD	00H
	DD	040H
	DD	FLAT:??_R3CDialog@@8
rdata$r	ENDS
;	COMDAT ??_R3CDialog@@8
rdata$r	SEGMENT
??_R3CDialog@@8 DD 00H					; CDialog::`RTTI Class Hierarchy Descriptor'
	DD	00H
	DD	04H
	DD	FLAT:??_R2CDialog@@8
rdata$r	ENDS
;	COMDAT ??_R2CDialog@@8
rdata$r	SEGMENT
??_R2CDialog@@8 DD FLAT:??_R1A@?0A@EA@CDialog@@8	; CDialog::`RTTI Base Class Array'
	DD	FLAT:??_R1A@?0A@EA@CWnd@@8
	DD	FLAT:??_R1A@?0A@EA@CCmdTarget@@8
	DD	FLAT:??_R1A@?0A@EA@CObject@@8
rdata$r	ENDS
;	COMDAT ??_R1A@?0A@EA@CWnd@@8
rdata$r	SEGMENT
??_R1A@?0A@EA@CWnd@@8 DD FLAT:??_R0?AVCWnd@@@8		; CWnd::`RTTI Base Class Descriptor at (0,-1,0,64)'
	DD	02H
	DD	00H
	DD	0ffffffffH
	DD	00H
	DD	040H
	DD	FLAT:??_R3CWnd@@8
rdata$r	ENDS
;	COMDAT ??_R3CWnd@@8
rdata$r	SEGMENT
??_R3CWnd@@8 DD	00H					; CWnd::`RTTI Class Hierarchy Descriptor'
	DD	00H
	DD	03H
	DD	FLAT:??_R2CWnd@@8
rdata$r	ENDS
;	COMDAT ??_R2CWnd@@8
rdata$r	SEGMENT
??_R2CWnd@@8 DD	FLAT:??_R1A@?0A@EA@CWnd@@8		; CWnd::`RTTI Base Class Array'
	DD	FLAT:??_R1A@?0A@EA@CCmdTarget@@8
	DD	FLAT:??_R1A@?0A@EA@CObject@@8
rdata$r	ENDS
;	COMDAT ??_R0?AVCWnd@@@8
_DATA	SEGMENT
??_R0?AVCWnd@@@8 DD FLAT:??_7type_info@@6B@		; CWnd `RTTI Type Descriptor'
	DD	00H
	DB	'.?AVCWnd@@', 00H
_DATA	ENDS
;	COMDAT ??_R0?AVCDialog@@@8
_DATA	SEGMENT
??_R0?AVCDialog@@@8 DD FLAT:??_7type_info@@6B@		; CDialog `RTTI Type Descriptor'
	DD	00H
	DB	'.?AVCDialog@@', 00H
_DATA	ENDS
;	COMDAT ??_R0?AVCDialogEx@@@8
_DATA	SEGMENT
??_R0?AVCDialogEx@@@8 DD FLAT:??_7type_info@@6B@	; CDialogEx `RTTI Type Descriptor'
	DD	00H
	DB	'.?AVCDialogEx@@', 00H
_DATA	ENDS
;	COMDAT ??_R1A@?0A@EA@euroNatOptions@@8
rdata$r	SEGMENT
??_R1A@?0A@EA@euroNatOptions@@8 DD FLAT:??_R0?AVeuroNatOptions@@@8 ; euroNatOptions::`RTTI Base Class Descriptor at (0,-1,0,64)'
	DD	05H
	DD	00H
	DD	0ffffffffH
	DD	00H
	DD	040H
	DD	FLAT:??_R3euroNatOptions@@8
rdata$r	ENDS
;	COMDAT ??_R0?AVeuroNatOptions@@@8
_DATA	SEGMENT
??_R0?AVeuroNatOptions@@@8 DD FLAT:??_7type_info@@6B@	; euroNatOptions `RTTI Type Descriptor'
	DD	00H
	DB	'.?AVeuroNatOptions@@', 00H
_DATA	ENDS
;	COMDAT ??_C@_07DLLKCFJK@More?4?4?4?$AA@
CONST	SEGMENT
??_C@_07DLLKCFJK@More?4?4?4?$AA@ DB 'More...', 00H	; `string'
CONST	ENDS
;	COMDAT ?messageMap@?1??GetThisMessageMap@euroNatOptions@@KGPBUAFX_MSGMAP@@XZ@4U3@B
CONST	SEGMENT
?messageMap@?1??GetThisMessageMap@euroNatOptions@@KGPBUAFX_MSGMAP@@XZ@4U3@B DD FLAT:?GetThisMessageMap@CDialogEx@@KGPBUAFX_MSGMAP@@XZ ; `euroNatOptions::GetThisMessageMap'::`2'::messageMap
	DD	FLAT:?_messageEntries@?1??GetThisMessageMap@euroNatOptions@@KGPBUAFX_MSGMAP@@XZ@4QBUAFX_MSGMAP_ENTRY@@B
CONST	ENDS
;	COMDAT ?_messageEntries@?1??GetThisMessageMap@euroNatOptions@@KGPBUAFX_MSGMAP@@XZ@4QBUAFX_MSGMAP_ENTRY@@B
CONST	SEGMENT
?_messageEntries@?1??GetThisMessageMap@euroNatOptions@@KGPBUAFX_MSGMAP@@XZ@4QBUAFX_MSGMAP_ENTRY@@B DD 0111H ; `euroNatOptions::GetThisMessageMap'::`2'::_messageEntries
	DD	00H
	DD	01H
	DD	01H
	DD	039H
	DD	FLAT:?OnBnClickedOk@euroNatOptions@@QAEXXZ
	DD	0111H
	DD	00H
	DD	0bc7H
	DD	0bc7H
	DD	039H
	DD	FLAT:?OnBnClickedGetNatData@euroNatOptions@@QAEXXZ
	DD	0111H
	DD	00H
	DD	0bcdH
	DD	0bcdH
	DD	039H
	DD	FLAT:?OnBnClickedLoadDefaults@euroNatOptions@@QAEXXZ
	DD	0111H
	DD	00H
	DD	0bc9H
	DD	0bc9H
	DD	039H
	DD	FLAT:?OnColorPickedEastbound@euroNatOptions@@QAEXXZ
	DD	0111H
	DD	00H
	DD	0bcaH
	DD	0bcaH
	DD	039H
	DD	FLAT:?OnColorPickedWestbound@euroNatOptions@@QAEXXZ
	DD	0111H
	DD	00H
	DD	0bcbH
	DD	0bcbH
	DD	039H
	DD	FLAT:?OnColorPickedConcorde@euroNatOptions@@QAEXXZ
	DD	0111H
	DD	00H
	DD	0bbaH
	DD	0bbaH
	DD	039H
	DD	FLAT:?OnBnClickedCheckShowLines@euroNatOptions@@QAEXXZ
	DD	0111H
	DD	00H
	DD	0bbbH
	DD	0bbbH
	DD	039H
	DD	FLAT:?OnBnClickedCheckShowLetters@euroNatOptions@@QAEXXZ
	DD	0111H
	DD	00H
	DD	0bbeH
	DD	0bbeH
	DD	039H
	DD	FLAT:?OnBnClickedCheckEastbound@euroNatOptions@@QAEXXZ
	DD	0111H
	DD	00H
	DD	0bbfH
	DD	0bbfH
	DD	039H
	DD	FLAT:?OnBnClickedCheckWestbound@euroNatOptions@@QAEXXZ
	DD	0111H
	DD	00H
	DD	0bc6H
	DD	0bc6H
	DD	039H
	DD	FLAT:?OnBnClickedCheckShortNames@euroNatOptions@@QAEXXZ
	DD	0111H
	DD	00H
	DD	0bc8H
	DD	0bc8H
	DD	039H
	DD	FLAT:?OnBnClickedCheckAntiAliased@euroNatOptions@@QAEXXZ
	DD	0111H
	DD	00H
	DD	0bc0H
	DD	0bc0H
	DD	039H
	DD	FLAT:?OnBnClickedCheckConcordTracks@euroNatOptions@@QAEXXZ
	DD	0111H
	DD	01H
	DD	0bc4H
	DD	0bc4H
	DD	039H
	DD	FLAT:?OnCbSelChangedLinestyle@euroNatOptions@@QAEXXZ
	DD	00H
	DD	00H
	DD	00H
	DD	00H
	DD	00H
	DD	00H
CONST	ENDS
;	COMDAT ?classeuroNatOptions@euroNatOptions@@2UCRuntimeClass@@B
CONST	SEGMENT
?classeuroNatOptions@euroNatOptions@@2UCRuntimeClass@@B DD FLAT:??_C@_0P@JNDJFOFL@euroNatOptions?$AA@ ; euroNatOptions::classeuroNatOptions
	DD	01c44H
	DD	0ffffH
	DD	00H
	DD	FLAT:?classCDialogEx@CDialogEx@@2UCRuntimeClass@@B
	DD	00H
	DD	00H
CONST	ENDS
;	COMDAT ??_C@_0P@JNDJFOFL@euroNatOptions?$AA@
CONST	SEGMENT
??_C@_0P@JNDJFOFL@euroNatOptions?$AA@ DB 'euroNatOptions', 00H ; `string'
; Function compile flags: /Ogtp
;	COMDAT ??0CButton@@QAE@XZ
_TEXT	SEGMENT
??0CButton@@QAE@XZ PROC					; CButton::CButton, COMDAT
; _this$ = ecx
; File c:\program files (x86)\microsoft visual studio 10.0\vc\atlmfc\include\afxwin2.inl
; Line 710
	push	esi
	mov	esi, ecx
	call	??0CWnd@@QAE@XZ				; CWnd::CWnd
	mov	DWORD PTR [esi], OFFSET ??_7CButton@@6B@
	mov	eax, esi
	pop	esi
	ret	0
??0CButton@@QAE@XZ ENDP					; CButton::CButton
; Function compile flags: /Ogtp
_TEXT	ENDS
;	COMDAT ?EndModalState@CWnd@@UAEXXZ
_TEXT	SEGMENT
?EndModalState@CWnd@@UAEXXZ PROC			; CWnd::EndModalState, COMDAT
; _this$ = ecx
; Line 655
	mov	eax, DWORD PTR [ecx+32]
	push	1
	push	eax
	call	DWORD PTR __imp__EnableWindow@8
	ret	0
?EndModalState@CWnd@@UAEXXZ ENDP			; CWnd::EndModalState
; Function compile flags: /Ogtp
_TEXT	ENDS
;	COMDAT ?BeginModalState@CWnd@@UAEXXZ
_TEXT	SEGMENT
?BeginModalState@CWnd@@UAEXXZ PROC			; CWnd::BeginModalState, COMDAT
; _this$ = ecx
; Line 653
	mov	eax, DWORD PTR [ecx+32]
	push	0
	push	eax
	call	DWORD PTR __imp__EnableWindow@8
	ret	0
?BeginModalState@CWnd@@UAEXXZ ENDP			; CWnd::BeginModalState
; Function compile flags: /Ogtp
_TEXT	ENDS
;	COMDAT ?DoDataExchange@CWnd@@MAEXPAVCDataExchange@@@Z
_TEXT	SEGMENT
___formal$ = 8						; size = 4
?DoDataExchange@CWnd@@MAEXPAVCDataExchange@@@Z PROC	; CWnd::DoDataExchange, COMDAT
; _this$ = ecx
; Line 649
	ret	4
?DoDataExchange@CWnd@@MAEXPAVCDataExchange@@@Z ENDP	; CWnd::DoDataExchange
; Function compile flags: /Ogtp
_TEXT	ENDS
;	COMDAT ??0CComboBox@@QAE@XZ
_TEXT	SEGMENT
??0CComboBox@@QAE@XZ PROC				; CComboBox::CComboBox, COMDAT
; _this$ = ecx
; Line 846
	push	esi
	mov	esi, ecx
	call	??0CWnd@@QAE@XZ				; CWnd::CWnd
	mov	DWORD PTR [esi], OFFSET ??_7CComboBox@@6B@
	mov	eax, esi
	pop	esi
	ret	0
??0CComboBox@@QAE@XZ ENDP				; CComboBox::CComboBox
; Function compile flags: /Ogtp
_TEXT	ENDS
;	COMDAT ??1CObject@@UAE@XZ
_TEXT	SEGMENT
??1CObject@@UAE@XZ PROC					; CObject::~CObject, COMDAT
; _this$ = ecx
; File c:\program files (x86)\microsoft visual studio 10.0\vc\atlmfc\include\afx.inl
; Line 94
	ret	0
??1CObject@@UAE@XZ ENDP					; CObject::~CObject
; Function compile flags: /Ogtp
_TEXT	ENDS
;	COMDAT ??B?$CSimpleStringT@D$0A@@ATL@@QBEPBDXZ
_TEXT	SEGMENT
??B?$CSimpleStringT@D$0A@@ATL@@QBEPBDXZ PROC		; ATL::CSimpleStringT<char,0>::operator char const *, COMDAT
; _this$ = ecx
; File c:\program files (x86)\microsoft visual studio 10.0\vc\atlmfc\include\atlsimpstr.h
; Line 403
	mov	eax, DWORD PTR [ecx]
; Line 404
	ret	0
??B?$CSimpleStringT@D$0A@@ATL@@QBEPBDXZ ENDP		; ATL::CSimpleStringT<char,0>::operator char const *
; Function compile flags: /Ogtp
_TEXT	ENDS
;	COMDAT ?GetData@?$CSimpleStringT@D$0A@@ATL@@ABEPAUCStringData@2@XZ
_TEXT	SEGMENT
?GetData@?$CSimpleStringT@D$0A@@ATL@@ABEPAUCStringData@2@XZ PROC ; ATL::CSimpleStringT<char,0>::GetData, COMDAT
; _this$ = ecx
; Line 823
	mov	eax, DWORD PTR [ecx]
	sub	eax, 16					; 00000010H
; Line 824
	ret	0
?GetData@?$CSimpleStringT@D$0A@@ATL@@ABEPAUCStringData@2@XZ ENDP ; ATL::CSimpleStringT<char,0>::GetData
; Function compile flags: /Ogtp
_TEXT	ENDS
;	COMDAT ?AtlThrowImpl@ATL@@YGXJ@Z
_TEXT	SEGMENT
_hr$ = 8						; size = 4
?AtlThrowImpl@ATL@@YGXJ@Z PROC				; ATL::AtlThrowImpl, COMDAT
; File c:\program files (x86)\microsoft visual studio 10.0\vc\atlmfc\include\atlexcept.h
; Line 65
	push	ebp
	mov	ebp, esp
; Line 68
	mov	eax, DWORD PTR _hr$[ebp]
	cmp	eax, -2147024882			; 8007000eH
	jne	SHORT $LN2@AtlThrowIm
; Line 70
	call	?AfxThrowMemoryException@@YGXXZ		; AfxThrowMemoryException
$LN6@AtlThrowIm:
$LN2@AtlThrowIm:
; Line 74
	push	eax
	call	?AfxThrowOleException@@YGXJ@Z		; AfxThrowOleException
$LN7@AtlThrowIm:
$LN5@AtlThrowIm:
	int	3
?AtlThrowImpl@ATL@@YGXJ@Z ENDP				; ATL::AtlThrowImpl
; Function compile flags: /Ogtp
_TEXT	ENDS
;	COMDAT ?Format@?$ChTraitsCRT@D@ATL@@SAHPADIPBD0@Z
_TEXT	SEGMENT
_pszBuffer$ = 8						; size = 4
_nlength$ = 12						; size = 4
_pszFormat$ = 16					; size = 4
_args$ = 20						; size = 4
?Format@?$ChTraitsCRT@D@ATL@@SAHPADIPBD0@Z PROC		; ATL::ChTraitsCRT<char>::Format, COMDAT
; File c:\program files (x86)\microsoft visual studio 10.0\vc\atlmfc\include\cstringt.h
; Line 302
	push	ebp
	mov	ebp, esp
; Line 304
	pop	ebp
; Line 303
	jmp	_vsprintf_s
?Format@?$ChTraitsCRT@D@ATL@@SAHPADIPBD0@Z ENDP		; ATL::ChTraitsCRT<char>::Format
; Function compile flags: /Ogtp
_TEXT	ENDS
;	COMDAT ?data@CStringData@ATL@@QAEPAXXZ
_TEXT	SEGMENT
?data@CStringData@ATL@@QAEPAXXZ PROC			; ATL::CStringData::data, COMDAT
; _this$ = ecx
; File c:\program files (x86)\microsoft visual studio 10.0\vc\atlmfc\include\atlsimpstr.h
; Line 85
	lea	eax, DWORD PTR [ecx+16]
; Line 86
	ret	0
?data@CStringData@ATL@@QAEPAXXZ ENDP			; ATL::CStringData::data
; Function compile flags: /Ogtp
_TEXT	ENDS
;	COMDAT ?ThrowMemoryException@?$CSimpleStringT@D$0A@@ATL@@KAXXZ
_TEXT	SEGMENT
?ThrowMemoryException@?$CSimpleStringT@D$0A@@ATL@@KAXXZ PROC ; ATL::CSimpleStringT<char,0>::ThrowMemoryException, COMDAT
; Line 796
	push	-2147024882				; 8007000eH
	call	?AtlThrowImpl@ATL@@YGXJ@Z		; ATL::AtlThrowImpl
$LN4@ThrowMemor:
$LN3@ThrowMemor:
	int	3
?ThrowMemoryException@?$CSimpleStringT@D$0A@@ATL@@KAXXZ ENDP ; ATL::CSimpleStringT<char,0>::ThrowMemoryException
; Function compile flags: /Ogtp
_TEXT	ENDS
;	COMDAT ?Release@CStringData@ATL@@QAEXXZ
_TEXT	SEGMENT
?Release@CStringData@ATL@@QAEXXZ PROC			; ATL::CStringData::Release, COMDAT
; _this$ = ecx
; Line 114
	lea	eax, DWORD PTR [ecx+12]
	or	edx, -1
	lock	 xadd	 DWORD PTR [eax], edx
	dec	edx
	test	edx, edx
	jg	SHORT $LN1@Release
; Line 116
	mov	eax, DWORD PTR [ecx]
	mov	edx, DWORD PTR [eax]
	push	ecx
	mov	ecx, eax
	mov	eax, DWORD PTR [edx+4]
	call	eax
$LN1@Release:
; Line 118
	ret	0
?Release@CStringData@ATL@@QAEXXZ ENDP			; ATL::CStringData::Release
; Function compile flags: /Ogtp
_TEXT	ENDS
;	COMDAT ?CopyChars@?$CSimpleStringT@D$0A@@ATL@@SAXPADIPBDH@Z
_TEXT	SEGMENT
_pchDest$ = 8						; size = 4
_nDestLen$ = 12						; size = 4
_pchSrc$ = 16						; size = 4
_nChars$ = 20						; size = 4
?CopyChars@?$CSimpleStringT@D$0A@@ATL@@SAXPADIPBDH@Z PROC ; ATL::CSimpleStringT<char,0>::CopyChars, COMDAT
; Line 718
	push	ebp
	mov	ebp, esp
; Line 721
	pop	ebp
; Line 720
	jmp	_memcpy_s
?CopyChars@?$CSimpleStringT@D$0A@@ATL@@SAXPADIPBDH@Z ENDP ; ATL::CSimpleStringT<char,0>::CopyChars
; Function compile flags: /Ogtp
_TEXT	ENDS
;	COMDAT ?IsShared@CStringData@ATL@@QBE_NXZ
_TEXT	SEGMENT
?IsShared@CStringData@ATL@@QBE_NXZ PROC			; ATL::CStringData::IsShared, COMDAT
; _this$ = ecx
; Line 99
	xor	eax, eax
	cmp	DWORD PTR [ecx+12], 1
	setg	al
; Line 100
	ret	0
?IsShared@CStringData@ATL@@QBE_NXZ ENDP			; ATL::CStringData::IsShared
; Function compile flags: /Ogtp
_TEXT	ENDS
;	COMDAT ?GetFormattedLength@?$ChTraitsCRT@D@ATL@@SAHPBDPAD@Z
_TEXT	SEGMENT
_pszFormat$ = 8						; size = 4
_args$ = 12						; size = 4
?GetFormattedLength@?$ChTraitsCRT@D@ATL@@SAHPBDPAD@Z PROC ; ATL::ChTraitsCRT<char>::GetFormattedLength, COMDAT
; File c:\program files (x86)\microsoft visual studio 10.0\vc\atlmfc\include\cstringt.h
; Line 282
	push	ebp
	mov	ebp, esp
; Line 284
	pop	ebp
; Line 283
	jmp	__vscprintf
?GetFormattedLength@?$ChTraitsCRT@D@ATL@@SAHPBDPAD@Z ENDP ; ATL::ChTraitsCRT<char>::GetFormattedLength
; Function compile flags: /Ogtp
_TEXT	ENDS
;	COMDAT ??1?$CSimpleStringT@D$0A@@ATL@@QAE@XZ
_TEXT	SEGMENT
??1?$CSimpleStringT@D$0A@@ATL@@QAE@XZ PROC		; ATL::CSimpleStringT<char,0>::~CSimpleStringT<char,0>, COMDAT
; _this$ = ecx
; File c:\program files (x86)\microsoft visual studio 10.0\vc\atlmfc\include\atlsimpstr.h
; Line 287
	mov	eax, DWORD PTR [ecx]
	sub	eax, 16					; 00000010H
; Line 288
	lea	ecx, DWORD PTR [eax+12]
	or	edx, -1
	lock	 xadd	 DWORD PTR [ecx], edx
	dec	edx
	test	edx, edx
	jg	SHORT $LN5@CSimpleStr
	mov	ecx, DWORD PTR [eax]
	mov	edx, DWORD PTR [ecx]
	push	eax
	mov	eax, DWORD PTR [edx+4]
	call	eax
$LN5@CSimpleStr:
; Line 289
	ret	0
??1?$CSimpleStringT@D$0A@@ATL@@QAE@XZ ENDP		; ATL::CSimpleStringT<char,0>::~CSimpleStringT<char,0>
; Function compile flags: /Ogtp
_TEXT	ENDS
;	COMDAT ?GetDefaultManager@?$StrTraitMFC@DV?$ChTraitsCRT@D@ATL@@@@SAPAUIAtlStringMgr@ATL@@XZ
_TEXT	SEGMENT
?GetDefaultManager@?$StrTraitMFC@DV?$ChTraitsCRT@D@ATL@@@@SAPAUIAtlStringMgr@ATL@@XZ PROC ; StrTraitMFC<char,ATL::ChTraitsCRT<char> >::GetDefaultManager, COMDAT
; File c:\program files (x86)\microsoft visual studio 10.0\vc\atlmfc\include\afxstr.h
; Line 52
	jmp	?AfxGetStringManager@@YGPAUIAtlStringMgr@ATL@@XZ ; AfxGetStringManager
?GetDefaultManager@?$StrTraitMFC@DV?$ChTraitsCRT@D@ATL@@@@SAPAUIAtlStringMgr@ATL@@XZ ENDP ; StrTraitMFC<char,ATL::ChTraitsCRT<char> >::GetDefaultManager
; Function compile flags: /Ogtp
_TEXT	ENDS
;	COMDAT ?GetCheck@CButton@@QBEHXZ
_TEXT	SEGMENT
?GetCheck@CButton@@QBEHXZ PROC				; CButton::GetCheck, COMDAT
; _this$ = ecx
; File c:\program files (x86)\microsoft visual studio 10.0\vc\atlmfc\include\afxwin2.inl
; Line 716
	mov	eax, DWORD PTR [ecx+32]
	push	0
	push	0
	push	240					; 000000f0H
	push	eax
	call	DWORD PTR __imp__SendMessageA@16
	ret	0
?GetCheck@CButton@@QBEHXZ ENDP				; CButton::GetCheck
; Function compile flags: /Ogtp
_TEXT	ENDS
;	COMDAT ?GetColor@CMFCColorButton@@QBEKXZ
_TEXT	SEGMENT
?GetColor@CMFCColorButton@@QBEKXZ PROC			; CMFCColorButton::GetColor, COMDAT
; _this$ = eax
; File c:\program files (x86)\microsoft visual studio 10.0\vc\atlmfc\include\afxcolorbutton.h
; Line 42
	mov	eax, DWORD PTR [eax+1880]
	ret	0
?GetColor@CMFCColorButton@@QBEKXZ ENDP			; CMFCColorButton::GetColor
; Function compile flags: /Ogtp
_TEXT	ENDS
;	COMDAT ?GetCurSel@CComboBox@@QBEHXZ
_TEXT	SEGMENT
?GetCurSel@CComboBox@@QBEHXZ PROC			; CComboBox::GetCurSel, COMDAT
; _this$ = ecx
; File c:\program files (x86)\microsoft visual studio 10.0\vc\atlmfc\include\afxwin2.inl
; Line 850
	mov	eax, DWORD PTR [ecx+32]
	push	0
	push	0
	push	327					; 00000147H
	push	eax
	call	DWORD PTR __imp__SendMessageA@16
	ret	0
?GetCurSel@CComboBox@@QBEHXZ ENDP			; CComboBox::GetCurSel
; Function compile flags: /Ogtp
_TEXT	ENDS
;	COMDAT ?SetCheck@CButton@@QAEXH@Z
_TEXT	SEGMENT
_nCheck$ = 8						; size = 4
?SetCheck@CButton@@QAEXH@Z PROC				; CButton::SetCheck, COMDAT
; _this$ = ecx
; Line 718
	push	ebp
	mov	ebp, esp
	mov	eax, DWORD PTR _nCheck$[ebp]
	mov	ecx, DWORD PTR [ecx+32]
	push	0
	push	eax
	push	241					; 000000f1H
	push	ecx
	call	DWORD PTR __imp__SendMessageA@16
	pop	ebp
	ret	4
?SetCheck@CButton@@QAEXH@Z ENDP				; CButton::SetCheck
; Function compile flags: /Ogtp
_TEXT	ENDS
;	COMDAT ?SetCurSel@CComboBox@@QAEHH@Z
_TEXT	SEGMENT
_nSelect$ = 8						; size = 4
?SetCurSel@CComboBox@@QAEHH@Z PROC			; CComboBox::SetCurSel, COMDAT
; _this$ = ecx
; Line 852
	push	ebp
	mov	ebp, esp
	mov	eax, DWORD PTR _nSelect$[ebp]
	mov	ecx, DWORD PTR [ecx+32]
	push	0
	push	eax
	push	334					; 0000014eH
	push	ecx
	call	DWORD PTR __imp__SendMessageA@16
	pop	ebp
	ret	4
?SetCurSel@CComboBox@@QAEHH@Z ENDP			; CComboBox::SetCurSel
; Function compile flags: /Ogtp
_TEXT	ENDS
;	COMDAT ?GetWindowRect@CWnd@@QBEXPAUtagRECT@@@Z
_TEXT	SEGMENT
_lpRect$ = 8						; size = 4
?GetWindowRect@CWnd@@QBEXPAUtagRECT@@@Z PROC		; CWnd::GetWindowRect, COMDAT
; _this$ = ecx
; Line 116
	push	ebp
	mov	ebp, esp
	mov	eax, DWORD PTR _lpRect$[ebp]
	mov	ecx, DWORD PTR [ecx+32]
	push	eax
	push	ecx
	call	DWORD PTR __imp__GetWindowRect@8
	pop	ebp
	ret	4
?GetWindowRect@CWnd@@QBEXPAUtagRECT@@@Z ENDP		; CWnd::GetWindowRect
; Function compile flags: /Ogtp
_TEXT	ENDS
;	COMDAT ?Create@CDialog@@UAEHIPAVCWnd@@@Z
_TEXT	SEGMENT
_nIDTemplate$ = 8					; size = 4
_pParentWnd$ = 12					; size = 4
?Create@CDialog@@UAEHIPAVCWnd@@@Z PROC			; CDialog::Create, COMDAT
; _this$ = ecx
; Line 673
	push	ebp
	mov	ebp, esp
	mov	eax, DWORD PTR _pParentWnd$[ebp]
	movzx	edx, WORD PTR _nIDTemplate$[ebp]
	push	eax
	push	edx
	call	?Create@CDialog@@UAEHPBDPAVCWnd@@@Z	; CDialog::Create
	pop	ebp
	ret	8
?Create@CDialog@@UAEHIPAVCWnd@@@Z ENDP			; CDialog::Create
_TEXT	ENDS
PUBLIC	?LoadValues@euroNatOptions@@IAEXXZ		; euroNatOptions::LoadValues
; Function compile flags: /Ogtp
_TEXT	SEGMENT
?LoadValues@euroNatOptions@@IAEXXZ PROC			; euroNatOptions::LoadValues
; _this$ = eax
; File c:\users\michael\desktop\code\euronat\euronatoptions.cpp
; Line 145
	push	esi
	push	edi
; Line 146
	mov	edi, DWORD PTR __imp__SendMessageA@16
	mov	esi, eax
	movzx	eax, BYTE PTR ?Lines@NATShow@@2_NA	; NATShow::Lines
	mov	ecx, DWORD PTR [esi+564]
	push	0
	push	eax
	push	241					; 000000f1H
	push	ecx
	call	edi
; Line 147
	movzx	edx, BYTE PTR ?Eastbound@NATShow@@2_NA	; NATShow::Eastbound
	mov	eax, DWORD PTR [esi+332]
	push	0
	push	edx
	push	241					; 000000f1H
	push	eax
	call	edi
; Line 148
	movzx	ecx, BYTE PTR ?Westbound@NATShow@@2_NA	; NATShow::Westbound
	mov	edx, DWORD PTR [esi+448]
	push	0
	push	ecx
	push	241					; 000000f1H
	push	edx
	call	edi
; Line 149
	movzx	eax, BYTE PTR ?Letters@NATShow@@2_NA	; NATShow::Letters
	mov	ecx, DWORD PTR [esi+216]
	push	0
	push	eax
	push	241					; 000000f1H
	push	ecx
	call	edi
; Line 150
	movzx	edx, BYTE PTR ?ShortWPNames@NATShow@@2_NA ; NATShow::ShortWPNames
	mov	eax, DWORD PTR [esi+680]
	push	0
	push	edx
	push	241					; 000000f1H
	push	eax
	call	edi
; Line 151
	movzx	ecx, BYTE PTR ?AntialiasedLine@NATShow@@2_NA ; NATShow::AntialiasedLine
	mov	edx, DWORD PTR [esi+796]
	push	0
	push	ecx
	push	241					; 000000f1H
	push	edx
	call	edi
; Line 152
	movzx	eax, BYTE PTR ?ConcordTracks@NATShow@@2_NA ; NATShow::ConcordTracks
	mov	ecx, DWORD PTR [esi+912]
	push	0
	push	eax
	push	241					; 000000f1H
	push	ecx
	call	edi
; Line 153
	mov	eax, DWORD PTR [esi+6920]
	xor	edx, edx
	cmp	BYTE PTR ?DottedLines@NATShow@@2_NA, dl	; NATShow::DottedLines
	push	0
	sete	dl
	push	edx
	push	334					; 0000014eH
	push	eax
	call	edi
; Line 154
	xor	ecx, ecx
	cmp	BYTE PTR ?DottedLines@NATShow@@2_NA, cl	; NATShow::DottedLines
	sete	cl
	push	ecx
	lea	ecx, DWORD PTR [esi+764]
	call	?EnableWindow@CWnd@@QAEHH@Z		; CWnd::EnableWindow
; Line 156
	push	1
	push	0
	push	OFFSET ??_C@_07DLLKCFJK@More?4?4?4?$AA@
	lea	ecx, DWORD PTR [esi+996]
	call	?EnableOtherButton@CMFCColorButton@@QAEXPBDHH@Z ; CMFCColorButton::EnableOtherButton
; Line 157
	mov	edx, DWORD PTR ?EastboundColor@NATShow@@2KA ; NATShow::EastboundColor
	push	edx
	lea	ecx, DWORD PTR [esi+996]
	call	?SetColor@CMFCColorButton@@QAEXK@Z	; CMFCColorButton::SetColor
; Line 158
	push	1
	push	0
	push	OFFSET ??_C@_07DLLKCFJK@More?4?4?4?$AA@
	lea	ecx, DWORD PTR [esi+2960]
	call	?EnableOtherButton@CMFCColorButton@@QAEXPBDHH@Z ; CMFCColorButton::EnableOtherButton
; Line 159
	mov	eax, DWORD PTR ?WestboundColor@NATShow@@2KA ; NATShow::WestboundColor
	push	eax
	lea	ecx, DWORD PTR [esi+2960]
	call	?SetColor@CMFCColorButton@@QAEXK@Z	; CMFCColorButton::SetColor
; Line 160
	push	1
	push	0
	push	OFFSET ??_C@_07DLLKCFJK@More?4?4?4?$AA@
	lea	ecx, DWORD PTR [esi+4924]
	call	?EnableOtherButton@CMFCColorButton@@QAEXPBDHH@Z ; CMFCColorButton::EnableOtherButton
; Line 161
	mov	ecx, DWORD PTR ?ConcordeColor@NATShow@@2KA ; NATShow::ConcordeColor
	push	ecx
	lea	ecx, DWORD PTR [esi+4924]
	call	?SetColor@CMFCColorButton@@QAEXK@Z	; CMFCColorButton::SetColor
	pop	edi
	pop	esi
; Line 162
	ret	0
?LoadValues@euroNatOptions@@IAEXXZ ENDP			; euroNatOptions::LoadValues
; Function compile flags: /Ogtp
?OnBnClickedCheckConcordTracks@euroNatOptions@@QAEXXZ PROC ; euroNatOptions::OnBnClickedCheckConcordTracks
; _this$ = ecx
; Line 141
	mov	eax, DWORD PTR [ecx+912]
	push	0
	push	0
	push	240					; 000000f0H
	push	eax
	call	DWORD PTR __imp__SendMessageA@16
	test	eax, eax
	setg	cl
	mov	BYTE PTR ?ConcordTracks@NATShow@@2_NA, cl ; NATShow::ConcordTracks
; Line 142
	ret	0
?OnBnClickedCheckConcordTracks@euroNatOptions@@QAEXXZ ENDP ; euroNatOptions::OnBnClickedCheckConcordTracks
; Function compile flags: /Ogtp
?OnBnClickedCheckAntiAliased@euroNatOptions@@QAEXXZ PROC ; euroNatOptions::OnBnClickedCheckAntiAliased
; _this$ = ecx
; Line 136
	mov	eax, DWORD PTR [ecx+796]
	push	0
	push	0
	push	240					; 000000f0H
	push	eax
	call	DWORD PTR __imp__SendMessageA@16
	test	eax, eax
	setg	cl
	mov	BYTE PTR ?AntialiasedLine@NATShow@@2_NA, cl ; NATShow::AntialiasedLine
; Line 137
	ret	0
?OnBnClickedCheckAntiAliased@euroNatOptions@@QAEXXZ ENDP ; euroNatOptions::OnBnClickedCheckAntiAliased
; Function compile flags: /Ogtp
?OnBnClickedCheckShortNames@euroNatOptions@@QAEXXZ PROC ; euroNatOptions::OnBnClickedCheckShortNames
; _this$ = ecx
; Line 131
	mov	eax, DWORD PTR [ecx+680]
	push	0
	push	0
	push	240					; 000000f0H
	push	eax
	call	DWORD PTR __imp__SendMessageA@16
	test	eax, eax
	setg	cl
	mov	BYTE PTR ?ShortWPNames@NATShow@@2_NA, cl ; NATShow::ShortWPNames
; Line 132
	ret	0
?OnBnClickedCheckShortNames@euroNatOptions@@QAEXXZ ENDP	; euroNatOptions::OnBnClickedCheckShortNames
; Function compile flags: /Ogtp
?OnCbSelChangedLinestyle@euroNatOptions@@QAEXXZ PROC	; euroNatOptions::OnCbSelChangedLinestyle
; _this$ = ecx
; Line 124
	push	esi
	push	edi
; Line 125
	mov	edi, DWORD PTR __imp__SendMessageA@16
	push	0
	push	0
	mov	esi, ecx
	mov	eax, DWORD PTR [esi+6920]
	push	327					; 00000147H
	push	eax
	call	edi
; Line 126
	mov	edx, DWORD PTR [esi+6920]
	push	0
	push	0
	test	eax, eax
	push	327					; 00000147H
	sete	cl
	push	edx
	mov	BYTE PTR ?DottedLines@NATShow@@2_NA, cl	; NATShow::DottedLines
	call	edi
	dec	eax
	neg	eax
	sbb	eax, eax
	inc	eax
	push	eax
	lea	ecx, DWORD PTR [esi+764]
	call	?EnableWindow@CWnd@@QAEHH@Z		; CWnd::EnableWindow
	pop	edi
	pop	esi
; Line 127
	ret	0
?OnCbSelChangedLinestyle@euroNatOptions@@QAEXXZ ENDP	; euroNatOptions::OnCbSelChangedLinestyle
; Function compile flags: /Ogtp
?OnBnClickedCheckWestbound@euroNatOptions@@QAEXXZ PROC	; euroNatOptions::OnBnClickedCheckWestbound
; _this$ = ecx
; Line 120
	mov	eax, DWORD PTR [ecx+448]
	push	0
	push	0
	push	240					; 000000f0H
	push	eax
	call	DWORD PTR __imp__SendMessageA@16
	test	eax, eax
	setg	cl
	mov	BYTE PTR ?Westbound@NATShow@@2_NA, cl	; NATShow::Westbound
; Line 121
	ret	0
?OnBnClickedCheckWestbound@euroNatOptions@@QAEXXZ ENDP	; euroNatOptions::OnBnClickedCheckWestbound
; Function compile flags: /Ogtp
?OnBnClickedCheckEastbound@euroNatOptions@@QAEXXZ PROC	; euroNatOptions::OnBnClickedCheckEastbound
; _this$ = ecx
; Line 114
	mov	eax, DWORD PTR [ecx+332]
	push	0
	push	0
	push	240					; 000000f0H
	push	eax
	call	DWORD PTR __imp__SendMessageA@16
	test	eax, eax
	setg	cl
	mov	BYTE PTR ?Eastbound@NATShow@@2_NA, cl	; NATShow::Eastbound
; Line 115
	ret	0
?OnBnClickedCheckEastbound@euroNatOptions@@QAEXXZ ENDP	; euroNatOptions::OnBnClickedCheckEastbound
; Function compile flags: /Ogtp
?OnBnClickedCheckShowLetters@euroNatOptions@@QAEXXZ PROC ; euroNatOptions::OnBnClickedCheckShowLetters
; _this$ = ecx
; Line 108
	mov	eax, DWORD PTR [ecx+216]
	push	0
	push	0
	push	240					; 000000f0H
	push	eax
	call	DWORD PTR __imp__SendMessageA@16
	test	eax, eax
	setg	cl
	mov	BYTE PTR ?Letters@NATShow@@2_NA, cl	; NATShow::Letters
; Line 109
	ret	0
?OnBnClickedCheckShowLetters@euroNatOptions@@QAEXXZ ENDP ; euroNatOptions::OnBnClickedCheckShowLetters
; Function compile flags: /Ogtp
?OnColorPickedConcorde@euroNatOptions@@QAEXXZ PROC	; euroNatOptions::OnColorPickedConcorde
; _this$ = ecx
; Line 103
	mov	eax, DWORD PTR [ecx+6804]
	mov	DWORD PTR ?ConcordeColor@NATShow@@2KA, eax ; NATShow::ConcordeColor
; Line 104
	ret	0
?OnColorPickedConcorde@euroNatOptions@@QAEXXZ ENDP	; euroNatOptions::OnColorPickedConcorde
; Function compile flags: /Ogtp
?OnColorPickedWestbound@euroNatOptions@@QAEXXZ PROC	; euroNatOptions::OnColorPickedWestbound
; _this$ = ecx
; Line 98
	mov	eax, DWORD PTR [ecx+4840]
	mov	DWORD PTR ?WestboundColor@NATShow@@2KA, eax ; NATShow::WestboundColor
; Line 99
	ret	0
?OnColorPickedWestbound@euroNatOptions@@QAEXXZ ENDP	; euroNatOptions::OnColorPickedWestbound
; Function compile flags: /Ogtp
?OnColorPickedEastbound@euroNatOptions@@QAEXXZ PROC	; euroNatOptions::OnColorPickedEastbound
; _this$ = ecx
; Line 93
	mov	eax, DWORD PTR [ecx+2876]
	mov	DWORD PTR ?EastboundColor@NATShow@@2KA, eax ; NATShow::EastboundColor
; Line 94
	ret	0
?OnColorPickedEastbound@euroNatOptions@@QAEXXZ ENDP	; euroNatOptions::OnColorPickedEastbound
; Function compile flags: /Ogtp
?OnBnClickedCheckShowLines@euroNatOptions@@QAEXXZ PROC	; euroNatOptions::OnBnClickedCheckShowLines
; _this$ = ecx
; Line 88
	mov	eax, DWORD PTR [ecx+564]
	push	0
	push	0
	push	240					; 000000f0H
	push	eax
	call	DWORD PTR __imp__SendMessageA@16
	test	eax, eax
	setg	cl
	mov	BYTE PTR ?Lines@NATShow@@2_NA, cl	; NATShow::Lines
; Line 89
	ret	0
?OnBnClickedCheckShowLines@euroNatOptions@@QAEXXZ ENDP	; euroNatOptions::OnBnClickedCheckShowLines
; Function compile flags: /Ogtp
?OnBnClickedLoadDefaults@euroNatOptions@@QAEXXZ PROC	; euroNatOptions::OnBnClickedLoadDefaults
; _this$ = ecx
; Line 82
	mov	dl, 1
	mov	eax, ecx
	xor	cl, cl
	mov	BYTE PTR ?Eastbound@NATShow@@2_NA, dl	; NATShow::Eastbound
	mov	BYTE PTR ?Westbound@NATShow@@2_NA, dl	; NATShow::Westbound
	mov	BYTE PTR ?Letters@NATShow@@2_NA, dl	; NATShow::Letters
	mov	BYTE PTR ?Lines@NATShow@@2_NA, dl	; NATShow::Lines
	mov	BYTE PTR ?DottedLines@NATShow@@2_NA, dl	; NATShow::DottedLines
	mov	BYTE PTR ?StaticInfo@NATShow@@2_NA, cl	; NATShow::StaticInfo
	mov	BYTE PTR ?ShortWPNames@NATShow@@2_NA, cl ; NATShow::ShortWPNames
	mov	BYTE PTR ?AntialiasedLine@NATShow@@2_NA, cl ; NATShow::AntialiasedLine
	mov	BYTE PTR ?ConcordTracks@NATShow@@2_NA, cl ; NATShow::ConcordTracks
	mov	DWORD PTR ?EastboundColor@NATShow@@2KA, 9737331 ; NATShow::EastboundColor, 00949473H
	mov	DWORD PTR ?WestboundColor@NATShow@@2KA, 7574643 ; NATShow::WestboundColor, 00739473H
	mov	DWORD PTR ?ConcordeColor@NATShow@@2KA, 6579400 ; NATShow::ConcordeColor, 006464c8H
; Line 83
	jmp	?LoadValues@euroNatOptions@@IAEXXZ	; euroNatOptions::LoadValues
?OnBnClickedLoadDefaults@euroNatOptions@@QAEXXZ ENDP	; euroNatOptions::OnBnClickedLoadDefaults
; Function compile flags: /Ogtp
?OnBnClickedOk@euroNatOptions@@QAEXXZ PROC		; euroNatOptions::OnBnClickedOk
; _this$ = ecx
; Line 71
	jmp	?OnOK@CDialog@@MAEXXZ			; CDialog::OnOK
?OnBnClickedOk@euroNatOptions@@QAEXXZ ENDP		; euroNatOptions::OnBnClickedOk
; Function compile flags: /Ogtp
_pDX$ = 8						; size = 4
?DoDataExchange@euroNatOptions@@MAEXPAVCDataExchange@@@Z PROC ; euroNatOptions::DoDataExchange
; _this$ = ecx
; Line 26
	push	ebp
	mov	ebp, esp
	push	esi
	push	edi
; Line 28
	mov	edi, DWORD PTR _pDX$[ebp]
	mov	esi, ecx
	lea	eax, DWORD PTR [esi+532]
	push	eax
	push	3002					; 00000bbaH
	push	edi
	call	?DDX_Control@@YGXPAVCDataExchange@@HAAVCWnd@@@Z ; DDX_Control
; Line 29
	lea	ecx, DWORD PTR [esi+184]
	push	ecx
	push	3003					; 00000bbbH
	push	edi
	call	?DDX_Control@@YGXPAVCDataExchange@@HAAVCWnd@@@Z ; DDX_Control
; Line 30
	lea	edx, DWORD PTR [esi+300]
	push	edx
	push	3006					; 00000bbeH
	push	edi
	call	?DDX_Control@@YGXPAVCDataExchange@@HAAVCWnd@@@Z ; DDX_Control
; Line 31
	lea	eax, DWORD PTR [esi+416]
	push	eax
	push	3007					; 00000bbfH
	push	edi
	call	?DDX_Control@@YGXPAVCDataExchange@@HAAVCWnd@@@Z ; DDX_Control
; Line 32
	lea	ecx, DWORD PTR [esi+648]
	push	ecx
	push	3014					; 00000bc6H
	push	edi
	call	?DDX_Control@@YGXPAVCDataExchange@@HAAVCWnd@@@Z ; DDX_Control
; Line 33
	lea	edx, DWORD PTR [esi+764]
	push	edx
	push	3016					; 00000bc8H
	push	edi
	call	?DDX_Control@@YGXPAVCDataExchange@@HAAVCWnd@@@Z ; DDX_Control
; Line 34
	lea	eax, DWORD PTR [esi+880]
	push	eax
	push	3008					; 00000bc0H
	push	edi
	call	?DDX_Control@@YGXPAVCDataExchange@@HAAVCWnd@@@Z ; DDX_Control
; Line 36
	lea	ecx, DWORD PTR [esi+6888]
	push	ecx
	push	3012					; 00000bc4H
	push	edi
	call	?DDX_Control@@YGXPAVCDataExchange@@HAAVCWnd@@@Z ; DDX_Control
; Line 38
	lea	edx, DWORD PTR [esi+7004]
	push	edx
	push	3015					; 00000bc7H
	push	edi
	call	?DDX_Control@@YGXPAVCDataExchange@@HAAVCWnd@@@Z ; DDX_Control
; Line 39
	lea	eax, DWORD PTR [esi+7120]
	push	eax
	push	3021					; 00000bcdH
	push	edi
	call	?DDX_Control@@YGXPAVCDataExchange@@HAAVCWnd@@@Z ; DDX_Control
; Line 41
	lea	ecx, DWORD PTR [esi+996]
	push	ecx
	push	3017					; 00000bc9H
	push	edi
	call	?DDX_Control@@YGXPAVCDataExchange@@HAAVCWnd@@@Z ; DDX_Control
; Line 42
	lea	edx, DWORD PTR [esi+2960]
	push	edx
	push	3018					; 00000bcaH
	push	edi
	call	?DDX_Control@@YGXPAVCDataExchange@@HAAVCWnd@@@Z ; DDX_Control
; Line 43
	add	esi, 4924				; 0000133cH
	push	esi
	push	3019					; 00000bcbH
	push	edi
	call	?DDX_Control@@YGXPAVCDataExchange@@HAAVCWnd@@@Z ; DDX_Control
	pop	edi
	pop	esi
; Line 44
	pop	ebp
	ret	4
?DoDataExchange@euroNatOptions@@MAEXPAVCDataExchange@@@Z ENDP ; euroNatOptions::DoDataExchange
; Function compile flags: /Ogtp
?GetRuntimeClass@euroNatOptions@@UBEPAUCRuntimeClass@@XZ PROC ; euroNatOptions::GetRuntimeClass
; _this$ = ecx
; Line 14
	mov	eax, OFFSET ?classeuroNatOptions@euroNatOptions@@2UCRuntimeClass@@B ; euroNatOptions::classeuroNatOptions
	ret	0
?GetRuntimeClass@euroNatOptions@@UBEPAUCRuntimeClass@@XZ ENDP ; euroNatOptions::GetRuntimeClass
; Function compile flags: /Ogtp
;	COMDAT ??_GCButton@@UAEPAXI@Z
_TEXT	SEGMENT
___flags$ = 8						; size = 4
??_GCButton@@UAEPAXI@Z PROC				; CButton::`scalar deleting destructor', COMDAT
; _this$ = ecx
	push	ebp
	mov	ebp, esp
	push	esi
	mov	esi, ecx
	call	??1CButton@@UAE@XZ			; CButton::~CButton
	test	BYTE PTR ___flags$[ebp], 1
	je	SHORT $LN6@scalar@3
	push	esi
	call	??3@YAXPAX@Z				; operator delete
	add	esp, 4
$LN6@scalar@3:
	mov	eax, esi
	pop	esi
	pop	ebp
	ret	4
??_GCButton@@UAEPAXI@Z ENDP				; CButton::`scalar deleting destructor'
; Function compile flags: /Ogtp
_TEXT	ENDS
;	COMDAT ??_GCComboBox@@UAEPAXI@Z
_TEXT	SEGMENT
___flags$ = 8						; size = 4
??_GCComboBox@@UAEPAXI@Z PROC				; CComboBox::`scalar deleting destructor', COMDAT
; _this$ = ecx
	push	ebp
	mov	ebp, esp
	push	esi
	mov	esi, ecx
	call	??1CComboBox@@UAE@XZ			; CComboBox::~CComboBox
	test	BYTE PTR ___flags$[ebp], 1
	je	SHORT $LN6@scalar@4
	push	esi
	call	??3@YAXPAX@Z				; operator delete
	add	esp, 4
$LN6@scalar@4:
	mov	eax, esi
	pop	esi
	pop	ebp
	ret	4
??_GCComboBox@@UAEPAXI@Z ENDP				; CComboBox::`scalar deleting destructor'
; Function compile flags: /Ogtp
_TEXT	ENDS
;	COMDAT ?SetLength@?$CSimpleStringT@D$0A@@ATL@@AAEXH@Z
_TEXT	SEGMENT
_nLength$ = 8						; size = 4
?SetLength@?$CSimpleStringT@D$0A@@ATL@@AAEXH@Z PROC	; ATL::CSimpleStringT<char,0>::SetLength, COMDAT
; _this$ = ecx
; File c:\program files (x86)\microsoft visual studio 10.0\vc\atlmfc\include\atlsimpstr.h
; Line 890
	push	ebp
	mov	ebp, esp
; Line 894
	mov	eax, DWORD PTR _nLength$[ebp]
	test	eax, eax
	js	SHORT $LN1@SetLength
	mov	edx, DWORD PTR [ecx]
	cmp	eax, DWORD PTR [edx-8]
	jg	SHORT $LN1@SetLength
; Line 897
	mov	DWORD PTR [edx-12], eax
; Line 898
	mov	ecx, DWORD PTR [ecx]
	mov	BYTE PTR [eax+ecx], 0
; Line 899
	pop	ebp
	ret	4
$LN1@SetLength:
; Line 895
	push	-2147024809				; 80070057H
	call	?AtlThrowImpl@ATL@@YGXJ@Z		; ATL::AtlThrowImpl
$LN10@SetLength:
$LN9@SetLength:
	int	3
?SetLength@?$CSimpleStringT@D$0A@@ATL@@AAEXH@Z ENDP	; ATL::CSimpleStringT<char,0>::SetLength
; Function compile flags: /Ogtp
_TEXT	ENDS
;	COMDAT ?Attach@?$CSimpleStringT@D$0A@@ATL@@AAEXPAUCStringData@2@@Z
_TEXT	SEGMENT
_pData$ = 8						; size = 4
?Attach@?$CSimpleStringT@D$0A@@ATL@@AAEXPAUCStringData@2@@Z PROC ; ATL::CSimpleStringT<char,0>::Attach, COMDAT
; _this$ = ecx
; Line 802
	push	ebp
	mov	ebp, esp
; Line 803
	mov	eax, DWORD PTR _pData$[ebp]
	add	eax, 16					; 00000010H
	mov	DWORD PTR [ecx], eax
; Line 804
	pop	ebp
	ret	4
?Attach@?$CSimpleStringT@D$0A@@ATL@@AAEXPAUCStringData@2@@Z ENDP ; ATL::CSimpleStringT<char,0>::Attach
; Function compile flags: /Ogtp
_TEXT	ENDS
;	COMDAT ?Fork@?$CSimpleStringT@D$0A@@ATL@@AAEXH@Z
_TEXT	SEGMENT
_this$ = -4						; size = 4
tv181 = 8						; size = 4
_nLength$ = 8						; size = 4
?Fork@?$CSimpleStringT@D$0A@@ATL@@AAEXH@Z PROC		; ATL::CSimpleStringT<char,0>::Fork, COMDAT
; _this$ = ecx
; Line 806
	push	ebp
	mov	ebp, esp
	push	ecx
	push	ebx
	push	esi
; Line 807
	mov	esi, DWORD PTR [ecx]
; Line 808
	mov	ebx, DWORD PTR [esi-12]
	sub	esi, 16					; 00000010H
	mov	DWORD PTR _this$[ebp], ecx
; Line 809
	mov	ecx, DWORD PTR [esi]
	mov	eax, DWORD PTR [ecx]
	mov	edx, DWORD PTR [eax+16]
	push	edi
	call	edx
	mov	ecx, DWORD PTR _nLength$[ebp]
	mov	edx, DWORD PTR [eax]
	mov	edx, DWORD PTR [edx]
	push	1
	push	ecx
	mov	ecx, eax
	call	edx
	mov	edi, eax
; Line 810
	test	edi, edi
	jne	SHORT $LN1@Fork
; Line 812
	call	?ThrowMemoryException@?$CSimpleStringT@D$0A@@ATL@@KAXXZ ; ATL::CSimpleStringT<char,0>::ThrowMemoryException
$LN22@Fork:
$LN1@Fork:
; Line 814
	mov	eax, DWORD PTR _nLength$[ebp]
	cmp	ebx, eax
	jge	SHORT $LN4@Fork
	mov	eax, ebx
$LN4@Fork:
	inc	eax
; Line 816
	push	eax
	lea	edx, DWORD PTR [esi+16]
	push	edx
	lea	ecx, DWORD PTR [edi+16]
	push	eax
	push	ecx
	mov	DWORD PTR tv181[ebp], ecx
	call	_memcpy_s
	add	esp, 16					; 00000010H
; Line 817
	mov	DWORD PTR [edi+4], ebx
; Line 818
	lea	eax, DWORD PTR [esi+12]
	or	ecx, -1
	lock	 xadd	 DWORD PTR [eax], ecx
	dec	ecx
	test	ecx, ecx
	jg	SHORT $LN14@Fork
	mov	ecx, DWORD PTR [esi]
	mov	edx, DWORD PTR [ecx]
	mov	eax, DWORD PTR [edx+4]
	push	esi
	call	eax
$LN14@Fork:
; Line 819
	mov	ecx, DWORD PTR tv181[ebp]
	mov	edx, DWORD PTR _this$[ebp]
	pop	edi
	pop	esi
	mov	DWORD PTR [edx], ecx
	pop	ebx
; Line 820
	mov	esp, ebp
	pop	ebp
	ret	4
$LN21@Fork:
?Fork@?$CSimpleStringT@D$0A@@ATL@@AAEXH@Z ENDP		; ATL::CSimpleStringT<char,0>::Fork
; Function compile flags: /Ogtp
_TEXT	ENDS
;	COMDAT ??1?$CStringT@DV?$StrTraitMFC@DV?$ChTraitsCRT@D@ATL@@@@@ATL@@QAE@XZ
_TEXT	SEGMENT
??1?$CStringT@DV?$StrTraitMFC@DV?$ChTraitsCRT@D@ATL@@@@@ATL@@QAE@XZ PROC ; ATL::CStringT<char,StrTraitMFC<char,ATL::ChTraitsCRT<char> > >::~CStringT<char,StrTraitMFC<char,ATL::ChTraitsCRT<char> > >, COMDAT
; _this$ = ecx
; File c:\program files (x86)\microsoft visual studio 10.0\vc\atlmfc\include\cstringt.h
; Line 1213
	mov	eax, DWORD PTR [ecx]
	sub	eax, 16					; 00000010H
	lea	ecx, DWORD PTR [eax+12]
	or	edx, -1
	lock	 xadd	 DWORD PTR [ecx], edx
	dec	edx
	test	edx, edx
	jg	SHORT $LN7@CStringT
	mov	ecx, DWORD PTR [eax]
	mov	edx, DWORD PTR [ecx]
	push	eax
	mov	eax, DWORD PTR [edx+4]
	call	eax
$LN7@CStringT:
	ret	0
??1?$CStringT@DV?$StrTraitMFC@DV?$ChTraitsCRT@D@ATL@@@@@ATL@@QAE@XZ ENDP ; ATL::CStringT<char,StrTraitMFC<char,ATL::ChTraitsCRT<char> > >::~CStringT<char,StrTraitMFC<char,ATL::ChTraitsCRT<char> > >
; Function compile flags: /Ogtp
_TEXT	ENDS
;	COMDAT ??0?$CSimpleStringT@D$0A@@ATL@@QAE@PAUIAtlStringMgr@1@@Z
_TEXT	SEGMENT
_pStringMgr$ = 8					; size = 4
??0?$CSimpleStringT@D$0A@@ATL@@QAE@PAUIAtlStringMgr@1@@Z PROC ; ATL::CSimpleStringT<char,0>::CSimpleStringT<char,0>, COMDAT
; _this$ = ecx
; File c:\program files (x86)\microsoft visual studio 10.0\vc\atlmfc\include\atlsimpstr.h
; Line 229
	push	ebp
	mov	ebp, esp
	push	esi
	mov	esi, ecx
; Line 231
	mov	ecx, DWORD PTR _pStringMgr$[ebp]
	test	ecx, ecx
	jne	SHORT $LN9@CSimpleStr@2
	push	-2147467259				; 80004005H
	call	?AtlThrowImpl@ATL@@YGXJ@Z		; ATL::AtlThrowImpl
$LN18@CSimpleStr@2:
$LN9@CSimpleStr@2:
; Line 232
	mov	eax, DWORD PTR [ecx]
	mov	edx, DWORD PTR [eax+12]
	call	edx
; Line 233
	add	eax, 16					; 00000010H
	mov	DWORD PTR [esi], eax
; Line 234
	mov	eax, esi
	pop	esi
	pop	ebp
	ret	4
$LN17@CSimpleStr@2:
??0?$CSimpleStringT@D$0A@@ATL@@QAE@PAUIAtlStringMgr@1@@Z ENDP ; ATL::CSimpleStringT<char,0>::CSimpleStringT<char,0>
_TEXT	ENDS
PUBLIC	__$ArrayPad$
; Function compile flags: /Ogtp
_TEXT	SEGMENT
_windowrect$ = -20					; size = 16
__$ArrayPad$ = -4					; size = 4
?OnInitDialog@euroNatOptions@@UAEHXZ PROC		; euroNatOptions::OnInitDialog
; _this$ = ecx
; File c:\users\michael\desktop\code\euronat\euronatoptions.cpp
; Line 165
	push	ebp
	mov	ebp, esp
	sub	esp, 20					; 00000014H
	mov	eax, DWORD PTR ___security_cookie
	xor	eax, ebp
	mov	DWORD PTR __$ArrayPad$[ebp], eax
	push	esi
	mov	esi, ecx
; Line 166
	call	?OnInitDialog@CDialog@@UAEHXZ		; CDialog::OnInitDialog
; Line 169
	mov	ecx, DWORD PTR [esi+32]
	lea	eax, DWORD PTR _windowrect$[ebp]
	push	eax
	push	ecx
	call	DWORD PTR __imp__GetWindowRect@8
; Line 170
	mov	edx, DWORD PTR _windowrect$[ebp+12]
	sub	edx, DWORD PTR _windowrect$[ebp+4]
	mov	eax, DWORD PTR _windowrect$[ebp+8]
	sub	eax, DWORD PTR _windowrect$[ebp]
	push	0
	push	edx
	push	eax
	push	200					; 000000c8H
	push	300					; 0000012cH
	push	0
	mov	ecx, esi
	call	?SetWindowPos@CWnd@@QAEHPBV1@HHHHI@Z	; CWnd::SetWindowPos
; Line 172
	mov	eax, esi
	call	?LoadValues@euroNatOptions@@IAEXXZ	; euroNatOptions::LoadValues
; Line 176
	mov	ecx, DWORD PTR __$ArrayPad$[ebp]
	xor	ecx, ebp
	mov	eax, 1
	pop	esi
	call	@__security_check_cookie@4
	mov	esp, ebp
	pop	ebp
	ret	0
?OnInitDialog@euroNatOptions@@UAEHXZ ENDP		; euroNatOptions::OnInitDialog
; Function compile flags: /Ogtp
;	COMDAT ?ReleaseBufferSetLength@?$CSimpleStringT@D$0A@@ATL@@QAEXH@Z
_TEXT	SEGMENT
_nNewLength$ = 8					; size = 4
?ReleaseBufferSetLength@?$CSimpleStringT@D$0A@@ATL@@QAEXH@Z PROC ; ATL::CSimpleStringT<char,0>::ReleaseBufferSetLength, COMDAT
; _this$ = ecx
; File c:\program files (x86)\microsoft visual studio 10.0\vc\atlmfc\include\atlsimpstr.h
; Line 592
	push	ebp
	mov	ebp, esp
; Line 594
	mov	eax, DWORD PTR _nNewLength$[ebp]
	test	eax, eax
	js	SHORT $LN3@ReleaseBuf@2
	mov	edx, DWORD PTR [ecx]
	cmp	eax, DWORD PTR [edx-8]
	jg	SHORT $LN3@ReleaseBuf@2
	mov	DWORD PTR [edx-12], eax
	mov	ecx, DWORD PTR [ecx]
	mov	BYTE PTR [eax+ecx], 0
; Line 595
	pop	ebp
	ret	4
; Line 594
$LN3@ReleaseBuf@2:
	push	-2147024809				; 80070057H
	call	?AtlThrowImpl@ATL@@YGXJ@Z		; ATL::AtlThrowImpl
$LN13@ReleaseBuf@2:
$LN12@ReleaseBuf@2:
	int	3
?ReleaseBufferSetLength@?$CSimpleStringT@D$0A@@ATL@@QAEXH@Z ENDP ; ATL::CSimpleStringT<char,0>::ReleaseBufferSetLength
; Function compile flags: /Ogtp
_TEXT	ENDS
;	COMDAT ?Reallocate@?$CSimpleStringT@D$0A@@ATL@@AAEXH@Z
_TEXT	SEGMENT
_nLength$ = 8						; size = 4
?Reallocate@?$CSimpleStringT@D$0A@@ATL@@AAEXH@Z PROC	; ATL::CSimpleStringT<char,0>::Reallocate, COMDAT
; _this$ = ecx
; Line 872
	push	ebp
	mov	ebp, esp
; Line 876
	mov	edx, DWORD PTR _nLength$[ebp]
	push	esi
	mov	esi, ecx
	mov	eax, DWORD PTR [esi]
	mov	ecx, DWORD PTR [eax-16]
	sub	eax, 16					; 00000010H
	cmp	DWORD PTR [eax+8], edx
	jge	SHORT $LN2@Reallocate
	test	edx, edx
	jle	SHORT $LN2@Reallocate
; Line 881
	push	edi
	mov	edi, DWORD PTR [ecx]
	push	1
	push	edx
	push	eax
	mov	eax, DWORD PTR [edi+8]
	call	eax
	pop	edi
; Line 882
	test	eax, eax
	jne	SHORT $LN1@Reallocate
$LN2@Reallocate:
; Line 884
	call	?ThrowMemoryException@?$CSimpleStringT@D$0A@@ATL@@KAXXZ ; ATL::CSimpleStringT<char,0>::ThrowMemoryException
$LN13@Reallocate:
$LN1@Reallocate:
; Line 886
	add	eax, 16					; 00000010H
	mov	DWORD PTR [esi], eax
	pop	esi
; Line 887
	pop	ebp
	ret	4
$LN12@Reallocate:
?Reallocate@?$CSimpleStringT@D$0A@@ATL@@AAEXH@Z ENDP	; ATL::CSimpleStringT<char,0>::Reallocate
; Function compile flags: /Ogtp
_TEXT	ENDS
;	COMDAT ??0?$CStringT@DV?$StrTraitMFC@DV?$ChTraitsCRT@D@ATL@@@@@ATL@@QAE@XZ
_TEXT	SEGMENT
??0?$CStringT@DV?$StrTraitMFC@DV?$ChTraitsCRT@D@ATL@@@@@ATL@@QAE@XZ PROC ; ATL::CStringT<char,StrTraitMFC<char,ATL::ChTraitsCRT<char> > >::CStringT<char,StrTraitMFC<char,ATL::ChTraitsCRT<char> > >, COMDAT
; _this$ = ecx
; File c:\program files (x86)\microsoft visual studio 10.0\vc\atlmfc\include\cstringt.h
; Line 925
	push	esi
	mov	esi, ecx
	call	?AfxGetStringManager@@YGPAUIAtlStringMgr@ATL@@XZ ; AfxGetStringManager
	test	eax, eax
	jne	SHORT $LN13@CStringT@4
	push	-2147467259				; 80004005H
	call	?AtlThrowImpl@ATL@@YGXJ@Z		; ATL::AtlThrowImpl
$LN23@CStringT@4:
$LN13@CStringT@4:
	mov	edx, DWORD PTR [eax]
	mov	ecx, eax
	mov	eax, DWORD PTR [edx+12]
	call	eax
	add	eax, 16					; 00000010H
	mov	DWORD PTR [esi], eax
; Line 926
	mov	eax, esi
	pop	esi
	ret	0
$LN22@CStringT@4:
??0?$CStringT@DV?$StrTraitMFC@DV?$ChTraitsCRT@D@ATL@@@@@ATL@@QAE@XZ ENDP ; ATL::CStringT<char,StrTraitMFC<char,ATL::ChTraitsCRT<char> > >::CStringT<char,StrTraitMFC<char,ATL::ChTraitsCRT<char> > >
; Function compile flags: /Ogtp
;	COMDAT ?PrepareWrite2@?$CSimpleStringT@D$0A@@ATL@@AAEXH@Z
_TEXT	SEGMENT
_nLength$ = 8						; size = 4
?PrepareWrite2@?$CSimpleStringT@D$0A@@ATL@@AAEXH@Z PROC	; ATL::CSimpleStringT<char,0>::PrepareWrite2, COMDAT
; _this$ = ecx
; File c:\program files (x86)\microsoft visual studio 10.0\vc\atlmfc\include\atlsimpstr.h
; Line 841
	push	ebp
	mov	ebp, esp
; Line 842
	mov	eax, DWORD PTR [ecx]
; Line 843
	mov	edx, DWORD PTR [eax-12]
	push	edi
	mov	edi, DWORD PTR _nLength$[ebp]
	cmp	edx, edi
	jle	SHORT $LN7@PrepareWri
; Line 845
	mov	edi, edx
$LN7@PrepareWri:
; Line 847
	cmp	DWORD PTR [eax-4], 1
	jle	SHORT $LN6@PrepareWri
; Line 849
	push	edi
	call	?Fork@?$CSimpleStringT@D$0A@@ATL@@AAEXH@Z ; ATL::CSimpleStringT<char,0>::Fork
	pop	edi
; Line 870
	pop	ebp
	ret	4
$LN6@PrepareWri:
; Line 851
	mov	eax, DWORD PTR [eax-8]
	cmp	eax, edi
	jge	SHORT $LN4@PrepareWri
; Line 854
	push	esi
	mov	esi, eax
; Line 855
	cmp	esi, 1073741824				; 40000000H
	jle	SHORT $LN3@PrepareWri
; Line 857
	add	esi, 1048576				; 00100000H
; Line 859
	jmp	SHORT $LN2@PrepareWri
$LN3@PrepareWri:
; Line 862
	cdq
	sub	eax, edx
	sar	eax, 1
	add	esi, eax
$LN2@PrepareWri:
; Line 864
	cmp	esi, edi
	jge	SHORT $LN1@PrepareWri
; Line 866
	mov	esi, edi
$LN1@PrepareWri:
; Line 868
	push	esi
	call	?Reallocate@?$CSimpleStringT@D$0A@@ATL@@AAEXH@Z ; ATL::CSimpleStringT<char,0>::Reallocate
	pop	esi
$LN4@PrepareWri:
	pop	edi
; Line 870
	pop	ebp
	ret	4
?PrepareWrite2@?$CSimpleStringT@D$0A@@ATL@@AAEXH@Z ENDP	; ATL::CSimpleStringT<char,0>::PrepareWrite2
; Function compile flags: /Ogtp
;	COMDAT ?PrepareWrite@?$CSimpleStringT@D$0A@@ATL@@AAEPADH@Z
_TEXT	SEGMENT
_nLength$ = 8						; size = 4
?PrepareWrite@?$CSimpleStringT@D$0A@@ATL@@AAEPADH@Z PROC ; ATL::CSimpleStringT<char,0>::PrepareWrite, COMDAT
; _this$ = ecx
; Line 826
	push	ebp
	mov	ebp, esp
	push	esi
	mov	esi, ecx
; Line 827
	mov	ecx, DWORD PTR _nLength$[ebp]
	test	ecx, ecx
	jns	SHORT $LN2@PrepareWri@2
; Line 828
	push	-2147024809				; 80070057H
	call	?AtlThrowImpl@ATL@@YGXJ@Z		; ATL::AtlThrowImpl
$LN8@PrepareWri@2:
$LN2@PrepareWri@2:
; Line 830
	mov	eax, DWORD PTR [esi]
; Line 831
	mov	edx, 1
	sub	edx, DWORD PTR [eax-4]
; Line 832
	mov	eax, DWORD PTR [eax-8]
	sub	eax, ecx
; Line 833
	or	edx, eax
	jge	SHORT $LN1@PrepareWri@2
; Line 835
	push	ecx
	mov	ecx, esi
	call	?PrepareWrite2@?$CSimpleStringT@D$0A@@ATL@@AAEXH@Z ; ATL::CSimpleStringT<char,0>::PrepareWrite2
$LN1@PrepareWri@2:
; Line 838
	mov	eax, DWORD PTR [esi]
	pop	esi
; Line 839
	pop	ebp
	ret	4
$LN7@PrepareWri@2:
?PrepareWrite@?$CSimpleStringT@D$0A@@ATL@@AAEPADH@Z ENDP ; ATL::CSimpleStringT<char,0>::PrepareWrite
; Function compile flags: /Ogtp
;	COMDAT ?GetBuffer@?$CSimpleStringT@D$0A@@ATL@@QAEPADH@Z
_TEXT	SEGMENT
_nMinBufferLength$ = 8					; size = 4
?GetBuffer@?$CSimpleStringT@D$0A@@ATL@@QAEPADH@Z PROC	; ATL::CSimpleStringT<char,0>::GetBuffer, COMDAT
; _this$ = ecx
; Line 533
	push	ebp
	mov	ebp, esp
	push	esi
	mov	esi, ecx
; Line 534
	mov	ecx, DWORD PTR _nMinBufferLength$[ebp]
	test	ecx, ecx
	jns	SHORT $LN4@GetBuffer
	push	-2147024809				; 80070057H
	call	?AtlThrowImpl@ATL@@YGXJ@Z		; ATL::AtlThrowImpl
$LN11@GetBuffer:
$LN4@GetBuffer:
	mov	eax, DWORD PTR [esi]
	mov	edx, 1
	sub	edx, DWORD PTR [eax-4]
	mov	eax, DWORD PTR [eax-8]
	sub	eax, ecx
	or	edx, eax
	jge	SHORT $LN3@GetBuffer
	push	ecx
	mov	ecx, esi
	call	?PrepareWrite2@?$CSimpleStringT@D$0A@@ATL@@AAEXH@Z ; ATL::CSimpleStringT<char,0>::PrepareWrite2
$LN3@GetBuffer:
	mov	eax, DWORD PTR [esi]
	pop	esi
; Line 535
	pop	ebp
	ret	4
$LN10@GetBuffer:
?GetBuffer@?$CSimpleStringT@D$0A@@ATL@@QAEPADH@Z ENDP	; ATL::CSimpleStringT<char,0>::GetBuffer
; Function compile flags: /Ogtp
;	COMDAT ?FormatV@?$CStringT@DV?$StrTraitMFC@DV?$ChTraitsCRT@D@ATL@@@@@ATL@@QAEXPBDPAD@Z
_TEXT	SEGMENT
_pszFormat$ = 8						; size = 4
_args$ = 12						; size = 4
?FormatV@?$CStringT@DV?$StrTraitMFC@DV?$ChTraitsCRT@D@ATL@@@@@ATL@@QAEXPBDPAD@Z PROC ; ATL::CStringT<char,StrTraitMFC<char,ATL::ChTraitsCRT<char> > >::FormatV, COMDAT
; _this$ = ecx
; File c:\program files (x86)\microsoft visual studio 10.0\vc\atlmfc\include\cstringt.h
; Line 2132
	push	ebp
	mov	ebp, esp
	push	ebx
; Line 2134
	mov	ebx, DWORD PTR _pszFormat$[ebp]
	push	esi
	push	edi
	mov	edi, ecx
	test	ebx, ebx
	jne	SHORT $LN2@FormatV
; Line 2144
$LN21@FormatV:
; Line 2135
	push	-2147024809				; 80070057H
	call	?AtlThrowImpl@ATL@@YGXJ@Z		; ATL::AtlThrowImpl
$LN31@FormatV:
$LN2@FormatV:
; Line 2137
	mov	eax, DWORD PTR _args$[ebp]
	push	eax
	push	ebx
	call	__vscprintf
	mov	esi, eax
	add	esp, 8
; Line 2139
	test	esi, esi
	jns	SHORT $LN10@FormatV
; Line 2140
	push	-2147467259				; 80004005H
	call	?AtlThrowImpl@ATL@@YGXJ@Z		; ATL::AtlThrowImpl
$LN32@FormatV:
; Line 2142
$LN10@FormatV:
	mov	eax, DWORD PTR [edi]
	mov	edx, DWORD PTR [eax-8]
	mov	ecx, 1
	sub	ecx, DWORD PTR [eax-4]
	sub	edx, esi
	or	ecx, edx
	jge	SHORT $LN9@FormatV
	push	esi
	mov	ecx, edi
	call	?PrepareWrite2@?$CSimpleStringT@D$0A@@ATL@@AAEXH@Z ; ATL::CSimpleStringT<char,0>::PrepareWrite2
$LN9@FormatV:
; Line 2143
	mov	eax, DWORD PTR _args$[ebp]
	mov	edx, DWORD PTR [edi]
	push	eax
	push	ebx
	lea	ecx, DWORD PTR [esi+1]
	push	ecx
	push	edx
	call	_vsprintf_s
; Line 2144
	mov	eax, DWORD PTR [edi]
	add	esp, 16					; 00000010H
	cmp	esi, DWORD PTR [eax-8]
	jg	SHORT $LN21@FormatV
	mov	DWORD PTR [eax-12], esi
	mov	eax, DWORD PTR [edi]
	pop	edi
	mov	BYTE PTR [esi+eax], 0
	pop	esi
	pop	ebx
; Line 2145
	pop	ebp
	ret	8
$LN30@FormatV:
?FormatV@?$CStringT@DV?$StrTraitMFC@DV?$ChTraitsCRT@D@ATL@@@@@ATL@@QAEXPBDPAD@Z ENDP ; ATL::CStringT<char,StrTraitMFC<char,ATL::ChTraitsCRT<char> > >::FormatV
; Function compile flags: /Ogtp
;	COMDAT ?Format@?$CStringT@DV?$StrTraitMFC@DV?$ChTraitsCRT@D@ATL@@@@@ATL@@QAAXPBDZZ
_TEXT	SEGMENT
_this$ = 8						; size = 4
_pszFormat$ = 12					; size = 4
?Format@?$CStringT@DV?$StrTraitMFC@DV?$ChTraitsCRT@D@ATL@@@@@ATL@@QAAXPBDZZ PROC ; ATL::CStringT<char,StrTraitMFC<char,ATL::ChTraitsCRT<char> > >::Format, COMDAT
; Line 2603
	push	ebp
	mov	ebp, esp
; Line 2608
	mov	ecx, DWORD PTR _pszFormat$[ebp]
	lea	eax, DWORD PTR _pszFormat$[ebp+4]
	push	eax
	push	ecx
	mov	ecx, DWORD PTR _this$[ebp]
	call	?FormatV@?$CStringT@DV?$StrTraitMFC@DV?$ChTraitsCRT@D@ATL@@@@@ATL@@QAEXPBDPAD@Z ; ATL::CStringT<char,StrTraitMFC<char,ATL::ChTraitsCRT<char> > >::FormatV
; Line 2610
	pop	ebp
	ret	0
?Format@?$CStringT@DV?$StrTraitMFC@DV?$ChTraitsCRT@D@ATL@@@@@ATL@@QAAXPBDZZ ENDP ; ATL::CStringT<char,StrTraitMFC<char,ATL::ChTraitsCRT<char> > >::Format
PUBLIC	__$ArrayPad$
;	COMDAT xdata$x
; File c:\program files (x86)\microsoft visual studio 10.0\vc\atlmfc\include\afx.inl
xdata$x	SEGMENT
__catchsym$??1CGdiObject@@UAE@XZ$3 DD 00H
	DD	FLAT:??_R0PAVCException@@@8
	DD	0fffffde4H
	DD	FLAT:__catch$??1CGdiObject@@UAE@XZ$0
__tryblocktable$??1CGdiObject@@UAE@XZ DD 00H
	DD	00H
	DD	02H
	DD	01H
	DD	FLAT:__catchsym$??1CGdiObject@@UAE@XZ$3
__unwindtable$??1CGdiObject@@UAE@XZ DD 0ffffffffH
	DD	00H
	DD	0ffffffffH
	DD	00H
	DD	01H
	DD	FLAT:__unwindfunclet$??1CGdiObject@@UAE@XZ$2
__ehfuncinfo$??1CGdiObject@@UAE@XZ DD 019930522H
	DD	03H
	DD	FLAT:__unwindtable$??1CGdiObject@@UAE@XZ
	DD	01H
	DD	FLAT:__tryblocktable$??1CGdiObject@@UAE@XZ
	DD	2 DUP(00H)
	DD	00H
	DD	01H
; Function compile flags: /Ogtp
xdata$x	ENDS
;	COMDAT ??1CGdiObject@@UAE@XZ
_TEXT	SEGMENT
_pException$133369 = -540				; size = 4
_strMsg$133376 = -536					; size = 4
_szErrorMessage$133377 = -532				; size = 512
__$ArrayPad$ = -20					; size = 4
__$EHRec$ = -16						; size = 16
??1CGdiObject@@UAE@XZ PROC				; CGdiObject::~CGdiObject, COMDAT
; _this$ = ecx
; File c:\program files (x86)\microsoft visual studio 10.0\vc\atlmfc\include\afxwin1.inl
; Line 77
	push	ebp
	mov	ebp, esp
	push	-1
	push	__ehhandler$??1CGdiObject@@UAE@XZ
	mov	eax, DWORD PTR fs:0
	push	eax
	sub	esp, 528				; 00000210H
	mov	eax, DWORD PTR ___security_cookie
	xor	eax, ebp
	mov	DWORD PTR __$ArrayPad$[ebp], eax
	push	ebx
	push	esi
	push	edi
	push	eax
	lea	eax, DWORD PTR __$EHRec$[ebp+4]
	mov	DWORD PTR fs:0, eax
	mov	DWORD PTR __$EHRec$[ebp], esp
	mov	DWORD PTR [ecx], OFFSET ??_7CGdiObject@@6B@
; Line 78
	mov	DWORD PTR __$EHRec$[ebp+12], 0
; Line 80
	call	?DeleteObject@CGdiObject@@QAEHXZ	; CGdiObject::DeleteObject
$LN18@CGdiObject:
; Line 83
	mov	ecx, DWORD PTR __$EHRec$[ebp+4]
	mov	DWORD PTR fs:0, ecx
	pop	ecx
	pop	edi
	pop	esi
	pop	ebx
	mov	ecx, DWORD PTR __$ArrayPad$[ebp]
	xor	ecx, ebp
	call	@__security_check_cookie@4
	mov	esp, ebp
	pop	ebp
	ret	0
__catch$??1CGdiObject@@UAE@XZ$0:
; Line 82
	lea	ecx, DWORD PTR _strMsg$133376[ebp]
	call	??0?$CStringT@DV?$StrTraitMFC@DV?$ChTraitsCRT@D@ATL@@@@@ATL@@QAE@XZ ; ATL::CStringT<char,StrTraitMFC<char,ATL::ChTraitsCRT<char> > >::CStringT<char,StrTraitMFC<char,ATL::ChTraitsCRT<char> > >
	mov	BYTE PTR __$EHRec$[ebp+12], 2
	mov	esi, DWORD PTR _pException$133369[ebp]
	mov	eax, DWORD PTR [esi]
	mov	edx, DWORD PTR [eax+12]
	push	0
	push	512					; 00000200H
	lea	ecx, DWORD PTR _szErrorMessage$133377[ebp]
	push	ecx
	mov	ecx, esi
	call	edx
	test	eax, eax
	je	SHORT $LN2@CGdiObject
	lea	eax, DWORD PTR _szErrorMessage$133377[ebp]
	push	eax
	push	82					; 00000052H
	push	OFFSET ??_C@_0FC@PBLIGINI@C?3?2Program?5Files?5?$CIx86?$CJ?2Microsoft@
	push	OFFSET ??_C@_0BP@OIEOKIDM@Exception?5thrown?5in?5destructor?$AA@
	lea	ecx, DWORD PTR _strMsg$133376[ebp]
	push	OFFSET ??_C@_0O@KHJMBFME@?$CFs?5?$CI?$CFs?3?$CFd?$CJ?6?$CFs?$AA@
	push	ecx
	call	?Format@?$CStringT@DV?$StrTraitMFC@DV?$ChTraitsCRT@D@ATL@@@@@ATL@@QAAXPBDZZ ; ATL::CStringT<char,StrTraitMFC<char,ATL::ChTraitsCRT<char> > >::Format
	add	esp, 24					; 00000018H
	jmp	SHORT $LN1@CGdiObject
$LN2@CGdiObject:
	push	82					; 00000052H
	push	OFFSET ??_C@_0FC@PBLIGINI@C?3?2Program?5Files?5?$CIx86?$CJ?2Microsoft@
	push	OFFSET ??_C@_0BP@OIEOKIDM@Exception?5thrown?5in?5destructor?$AA@
	lea	edx, DWORD PTR _strMsg$133376[ebp]
	push	OFFSET ??_C@_0L@LBHJMCDF@?$CFs?5?$CI?$CFs?3?$CFd?$CJ?$AA@
	push	edx
	call	?Format@?$CStringT@DV?$StrTraitMFC@DV?$ChTraitsCRT@D@ATL@@@@@ATL@@QAAXPBDZZ ; ATL::CStringT<char,StrTraitMFC<char,ATL::ChTraitsCRT<char> > >::Format
	add	esp, 20					; 00000014H
$LN1@CGdiObject:
	mov	eax, DWORD PTR _strMsg$133376[ebp]
	push	0
	push	0
	push	eax
	call	?AfxMessageBox@@YGHPBDII@Z		; AfxMessageBox
	lea	ecx, DWORD PTR _strMsg$133376[ebp]
	mov	BYTE PTR __$EHRec$[ebp+12], 1
	call	??1?$CStringT@DV?$StrTraitMFC@DV?$ChTraitsCRT@D@ATL@@@@@ATL@@QAE@XZ ; ATL::CStringT<char,StrTraitMFC<char,ATL::ChTraitsCRT<char> > >::~CStringT<char,StrTraitMFC<char,ATL::ChTraitsCRT<char> > >
	mov	edx, DWORD PTR [esi]
	mov	eax, DWORD PTR [edx+4]
	push	1
	mov	ecx, esi
	call	eax
	mov	eax, $LN18@CGdiObject
	ret	0
_TEXT	ENDS
;	COMDAT text$x
text$x	SEGMENT
__unwindfunclet$??1CGdiObject@@UAE@XZ$2:
	lea	ecx, DWORD PTR _strMsg$133376[ebp]
	jmp	??1?$CStringT@DV?$StrTraitMFC@DV?$ChTraitsCRT@D@ATL@@@@@ATL@@QAE@XZ ; ATL::CStringT<char,StrTraitMFC<char,ATL::ChTraitsCRT<char> > >::~CStringT<char,StrTraitMFC<char,ATL::ChTraitsCRT<char> > >
__ehhandler$??1CGdiObject@@UAE@XZ:
	mov	edx, DWORD PTR [esp+8]
	lea	eax, DWORD PTR [edx+12]
	mov	ecx, DWORD PTR [edx-544]
	xor	ecx, eax
	call	@__security_check_cookie@4
	mov	ecx, DWORD PTR [edx-8]
	xor	ecx, eax
	call	@__security_check_cookie@4
	mov	eax, OFFSET __ehfuncinfo$??1CGdiObject@@UAE@XZ
	jmp	___CxxFrameHandler3
text$x	ENDS
??1CGdiObject@@UAE@XZ ENDP				; CGdiObject::~CGdiObject
; Function compile flags: /Ogtp
;	COMDAT ??_GCGdiObject@@UAEPAXI@Z
_TEXT	SEGMENT
___flags$ = 8						; size = 4
??_GCGdiObject@@UAEPAXI@Z PROC				; CGdiObject::`scalar deleting destructor', COMDAT
; _this$ = ecx
	push	ebp
	mov	ebp, esp
	push	esi
	mov	esi, ecx
	call	??1CGdiObject@@UAE@XZ			; CGdiObject::~CGdiObject
	test	BYTE PTR ___flags$[ebp], 1
	je	SHORT $LN6@scalar@8
	push	esi
	call	??3@YAXPAX@Z				; operator delete
	add	esp, 4
$LN6@scalar@8:
	mov	eax, esi
	pop	esi
	pop	ebp
	ret	4
??_GCGdiObject@@UAEPAXI@Z ENDP				; CGdiObject::`scalar deleting destructor'
; Function compile flags: /Ogtp
;	COMDAT ??1CBrush@@UAE@XZ
_TEXT	SEGMENT
??1CBrush@@UAE@XZ PROC					; CBrush::~CBrush, COMDAT
; _this$ = ecx
; Line 135
	mov	DWORD PTR [ecx], OFFSET ??_7CBrush@@6B@
	jmp	??1CGdiObject@@UAE@XZ			; CGdiObject::~CGdiObject
??1CBrush@@UAE@XZ ENDP					; CBrush::~CBrush
; Function compile flags: /Ogtp
_TEXT	ENDS
;	COMDAT ??_GCBrush@@UAEPAXI@Z
_TEXT	SEGMENT
___flags$ = 8						; size = 4
??_GCBrush@@UAEPAXI@Z PROC				; CBrush::`scalar deleting destructor', COMDAT
; _this$ = ecx
	push	ebp
	mov	ebp, esp
	push	esi
	mov	esi, ecx
	mov	DWORD PTR [esi], OFFSET ??_7CBrush@@6B@
	call	??1CGdiObject@@UAE@XZ			; CGdiObject::~CGdiObject
	test	BYTE PTR ___flags$[ebp], 1
	je	SHORT $LN9@scalar@9
	push	esi
	call	??3@YAXPAX@Z				; operator delete
	add	esp, 4
$LN9@scalar@9:
	mov	eax, esi
	pop	esi
	pop	ebp
	ret	4
??_GCBrush@@UAEPAXI@Z ENDP				; CBrush::`scalar deleting destructor'
_TEXT	ENDS
;	COMDAT xdata$x
xdata$x	SEGMENT
__unwindtable$??1CDialogEx@@UAE@XZ DD 0ffffffffH
	DD	FLAT:__unwindfunclet$??1CDialogEx@@UAE@XZ$0
	DD	00H
	DD	FLAT:__unwindfunclet$??1CDialogEx@@UAE@XZ$1
__ehfuncinfo$??1CDialogEx@@UAE@XZ DD 019930522H
	DD	02H
	DD	FLAT:__unwindtable$??1CDialogEx@@UAE@XZ
	DD	2 DUP(00H)
	DD	2 DUP(00H)
	DD	00H
	DD	01H
; Function compile flags: /Ogtp
xdata$x	ENDS
;	COMDAT ??1CDialogEx@@UAE@XZ
_TEXT	SEGMENT
_this$ = -16						; size = 4
__$EHRec$ = -12						; size = 12
??1CDialogEx@@UAE@XZ PROC				; CDialogEx::~CDialogEx, COMDAT
; _this$ = ecx
	push	ebp
	mov	ebp, esp
	push	-1
	push	__ehhandler$??1CDialogEx@@UAE@XZ
	mov	eax, DWORD PTR fs:0
	push	eax
	push	ecx
	push	esi
	mov	eax, DWORD PTR ___security_cookie
	xor	eax, ebp
	push	eax
	lea	eax, DWORD PTR __$EHRec$[ebp]
	mov	DWORD PTR fs:0, eax
	mov	esi, ecx
	mov	DWORD PTR _this$[ebp], esi
	lea	ecx, DWORD PTR [esi+172]
	mov	DWORD PTR __$EHRec$[ebp+8], 1
	call	??1CDialogImpl@@MAE@XZ			; CDialogImpl::~CDialogImpl
	lea	ecx, DWORD PTR [esi+160]
	mov	BYTE PTR __$EHRec$[ebp+8], 0
	mov	DWORD PTR [ecx], OFFSET ??_7CBrush@@6B@
	call	??1CGdiObject@@UAE@XZ			; CGdiObject::~CGdiObject
	mov	ecx, esi
	mov	DWORD PTR __$EHRec$[ebp+8], -1
	call	??1CDialog@@UAE@XZ			; CDialog::~CDialog
	mov	ecx, DWORD PTR __$EHRec$[ebp]
	mov	DWORD PTR fs:0, ecx
	pop	ecx
	pop	esi
	mov	esp, ebp
	pop	ebp
	ret	0
_TEXT	ENDS
;	COMDAT text$x
text$x	SEGMENT
__unwindfunclet$??1CDialogEx@@UAE@XZ$0:
	mov	ecx, DWORD PTR _this$[ebp]
	jmp	??1CDialog@@UAE@XZ			; CDialog::~CDialog
__unwindfunclet$??1CDialogEx@@UAE@XZ$1:
	mov	ecx, DWORD PTR _this$[ebp]
	add	ecx, 160				; 000000a0H
	jmp	??1CBrush@@UAE@XZ			; CBrush::~CBrush
__ehhandler$??1CDialogEx@@UAE@XZ:
	mov	edx, DWORD PTR [esp+8]
	lea	eax, DWORD PTR [edx+12]
	mov	ecx, DWORD PTR [edx-12]
	xor	ecx, eax
	call	@__security_check_cookie@4
	mov	eax, OFFSET __ehfuncinfo$??1CDialogEx@@UAE@XZ
	jmp	___CxxFrameHandler3
text$x	ENDS
??1CDialogEx@@UAE@XZ ENDP				; CDialogEx::~CDialogEx
PUBLIC	??0euroNatOptions@@QAE@PAVCWnd@@@Z		; euroNatOptions::euroNatOptions
__ehfuncinfo$??0euroNatOptions@@QAE@PAVCWnd@@@Z DD 019930522H
	DD	0dH
	DD	FLAT:__unwindtable$??0euroNatOptions@@QAE@PAVCWnd@@@Z
	DD	2 DUP(00H)
	DD	2 DUP(00H)
	DD	00H
	DD	01H
__unwindtable$??0euroNatOptions@@QAE@PAVCWnd@@@Z DD 0ffffffffH
	DD	FLAT:__unwindfunclet$??0euroNatOptions@@QAE@PAVCWnd@@@Z$0
	DD	00H
	DD	FLAT:__unwindfunclet$??0euroNatOptions@@QAE@PAVCWnd@@@Z$1
	DD	01H
	DD	FLAT:__unwindfunclet$??0euroNatOptions@@QAE@PAVCWnd@@@Z$2
	DD	02H
	DD	FLAT:__unwindfunclet$??0euroNatOptions@@QAE@PAVCWnd@@@Z$3
	DD	03H
	DD	FLAT:__unwindfunclet$??0euroNatOptions@@QAE@PAVCWnd@@@Z$4
	DD	04H
	DD	FLAT:__unwindfunclet$??0euroNatOptions@@QAE@PAVCWnd@@@Z$5
	DD	05H
	DD	FLAT:__unwindfunclet$??0euroNatOptions@@QAE@PAVCWnd@@@Z$6
	DD	06H
	DD	FLAT:__unwindfunclet$??0euroNatOptions@@QAE@PAVCWnd@@@Z$7
	DD	07H
	DD	FLAT:__unwindfunclet$??0euroNatOptions@@QAE@PAVCWnd@@@Z$8
	DD	08H
	DD	FLAT:__unwindfunclet$??0euroNatOptions@@QAE@PAVCWnd@@@Z$9
	DD	09H
	DD	FLAT:__unwindfunclet$??0euroNatOptions@@QAE@PAVCWnd@@@Z$10
	DD	0aH
	DD	FLAT:__unwindfunclet$??0euroNatOptions@@QAE@PAVCWnd@@@Z$11
	DD	0bH
	DD	FLAT:__unwindfunclet$??0euroNatOptions@@QAE@PAVCWnd@@@Z$12
; Function compile flags: /Ogtp
_TEXT	SEGMENT
__$EHRec$ = -12						; size = 12
_this$ = 8						; size = 4
??0euroNatOptions@@QAE@PAVCWnd@@@Z PROC			; euroNatOptions::euroNatOptions
; File c:\users\michael\desktop\code\euronat\euronatoptions.cpp
; Line 18
	push	ebp
	mov	ebp, esp
	push	-1
	push	__ehhandler$??0euroNatOptions@@QAE@PAVCWnd@@@Z
	mov	eax, DWORD PTR fs:0
	push	eax
	push	esi
	push	edi
	mov	eax, DWORD PTR ___security_cookie
	xor	eax, ebp
	push	eax
	lea	eax, DWORD PTR __$EHRec$[ebp]
	mov	DWORD PTR fs:0, eax
	mov	esi, DWORD PTR _this$[ebp]
	push	0
	push	3000					; 00000bb8H
	mov	ecx, esi
	call	??0CDialogEx@@QAE@IPAVCWnd@@@Z		; CDialogEx::CDialogEx
	mov	DWORD PTR __$EHRec$[ebp+8], 0
	lea	ecx, DWORD PTR [esi+184]
	mov	DWORD PTR [esi], OFFSET ??_7euroNatOptions@@6B@
	call	??0CWnd@@QAE@XZ				; CWnd::CWnd
	mov	DWORD PTR [esi+184], OFFSET ??_7CButton@@6B@
	lea	ecx, DWORD PTR [esi+300]
	mov	BYTE PTR __$EHRec$[ebp+8], 1
	call	??0CWnd@@QAE@XZ				; CWnd::CWnd
	mov	DWORD PTR [esi+300], OFFSET ??_7CButton@@6B@
	lea	ecx, DWORD PTR [esi+416]
	mov	BYTE PTR __$EHRec$[ebp+8], 2
	call	??0CWnd@@QAE@XZ				; CWnd::CWnd
	mov	DWORD PTR [esi+416], OFFSET ??_7CButton@@6B@
	lea	ecx, DWORD PTR [esi+532]
	mov	BYTE PTR __$EHRec$[ebp+8], 3
	call	??0CWnd@@QAE@XZ				; CWnd::CWnd
	mov	DWORD PTR [esi+532], OFFSET ??_7CButton@@6B@
	lea	ecx, DWORD PTR [esi+648]
	mov	BYTE PTR __$EHRec$[ebp+8], 4
	call	??0CWnd@@QAE@XZ				; CWnd::CWnd
	mov	DWORD PTR [esi+648], OFFSET ??_7CButton@@6B@
	lea	ecx, DWORD PTR [esi+764]
	mov	BYTE PTR __$EHRec$[ebp+8], 5
	call	??0CWnd@@QAE@XZ				; CWnd::CWnd
	mov	DWORD PTR [esi+764], OFFSET ??_7CButton@@6B@
	lea	ecx, DWORD PTR [esi+880]
	mov	BYTE PTR __$EHRec$[ebp+8], 6
	call	??0CWnd@@QAE@XZ				; CWnd::CWnd
	mov	DWORD PTR [esi+880], OFFSET ??_7CButton@@6B@
	lea	ecx, DWORD PTR [esi+996]
	mov	BYTE PTR __$EHRec$[ebp+8], 7
	call	??0CMFCColorButton@@QAE@XZ		; CMFCColorButton::CMFCColorButton
	lea	ecx, DWORD PTR [esi+2960]
	mov	BYTE PTR __$EHRec$[ebp+8], 8
	call	??0CMFCColorButton@@QAE@XZ		; CMFCColorButton::CMFCColorButton
	lea	ecx, DWORD PTR [esi+4924]
	mov	BYTE PTR __$EHRec$[ebp+8], 9
	call	??0CMFCColorButton@@QAE@XZ		; CMFCColorButton::CMFCColorButton
	lea	ecx, DWORD PTR [esi+6888]
	mov	BYTE PTR __$EHRec$[ebp+8], 10		; 0000000aH
	call	??0CWnd@@QAE@XZ				; CWnd::CWnd
	mov	DWORD PTR [esi+6888], OFFSET ??_7CComboBox@@6B@
	lea	ecx, DWORD PTR [esi+7004]
	mov	BYTE PTR __$EHRec$[ebp+8], 11		; 0000000bH
	call	??0CWnd@@QAE@XZ				; CWnd::CWnd
	mov	DWORD PTR [esi+7004], OFFSET ??_7CButton@@6B@
	lea	ecx, DWORD PTR [esi+7120]
	mov	BYTE PTR __$EHRec$[ebp+8], 12		; 0000000cH
	call	??0CWnd@@QAE@XZ				; CWnd::CWnd
	mov	DWORD PTR [esi+7120], OFFSET ??_7CButton@@6B@
; Line 19
	mov	eax, esi
	mov	ecx, DWORD PTR __$EHRec$[ebp]
	mov	DWORD PTR fs:0, ecx
	pop	ecx
	pop	edi
	pop	esi
	mov	esp, ebp
	pop	ebp
	ret	4
__unwindfunclet$??0euroNatOptions@@QAE@PAVCWnd@@@Z$0:
	mov	ecx, DWORD PTR _this$[ebp]
	jmp	??1CDialogEx@@UAE@XZ
__unwindfunclet$??0euroNatOptions@@QAE@PAVCWnd@@@Z$1:
	mov	ecx, DWORD PTR _this$[ebp]
	add	ecx, 184				; 000000b8H
	jmp	??1CButton@@UAE@XZ			; CButton::~CButton
__unwindfunclet$??0euroNatOptions@@QAE@PAVCWnd@@@Z$2:
	mov	ecx, DWORD PTR _this$[ebp]
	add	ecx, 300				; 0000012cH
	jmp	??1CButton@@UAE@XZ			; CButton::~CButton
__unwindfunclet$??0euroNatOptions@@QAE@PAVCWnd@@@Z$3:
	mov	ecx, DWORD PTR _this$[ebp]
	add	ecx, 416				; 000001a0H
	jmp	??1CButton@@UAE@XZ			; CButton::~CButton
__unwindfunclet$??0euroNatOptions@@QAE@PAVCWnd@@@Z$4:
	mov	ecx, DWORD PTR _this$[ebp]
	add	ecx, 532				; 00000214H
	jmp	??1CButton@@UAE@XZ			; CButton::~CButton
__unwindfunclet$??0euroNatOptions@@QAE@PAVCWnd@@@Z$5:
	mov	ecx, DWORD PTR _this$[ebp]
	add	ecx, 648				; 00000288H
	jmp	??1CButton@@UAE@XZ			; CButton::~CButton
__unwindfunclet$??0euroNatOptions@@QAE@PAVCWnd@@@Z$6:
	mov	ecx, DWORD PTR _this$[ebp]
	add	ecx, 764				; 000002fcH
	jmp	??1CButton@@UAE@XZ			; CButton::~CButton
__unwindfunclet$??0euroNatOptions@@QAE@PAVCWnd@@@Z$7:
	mov	ecx, DWORD PTR _this$[ebp]
	add	ecx, 880				; 00000370H
	jmp	??1CButton@@UAE@XZ			; CButton::~CButton
__unwindfunclet$??0euroNatOptions@@QAE@PAVCWnd@@@Z$8:
	mov	ecx, DWORD PTR _this$[ebp]
	add	ecx, 996				; 000003e4H
	jmp	??1CMFCColorButton@@UAE@XZ		; CMFCColorButton::~CMFCColorButton
__unwindfunclet$??0euroNatOptions@@QAE@PAVCWnd@@@Z$9:
	mov	ecx, DWORD PTR _this$[ebp]
	add	ecx, 2960				; 00000b90H
	jmp	??1CMFCColorButton@@UAE@XZ		; CMFCColorButton::~CMFCColorButton
__unwindfunclet$??0euroNatOptions@@QAE@PAVCWnd@@@Z$10:
	mov	ecx, DWORD PTR _this$[ebp]
	add	ecx, 4924				; 0000133cH
	jmp	??1CMFCColorButton@@UAE@XZ		; CMFCColorButton::~CMFCColorButton
__unwindfunclet$??0euroNatOptions@@QAE@PAVCWnd@@@Z$11:
	mov	ecx, DWORD PTR _this$[ebp]
	add	ecx, 6888				; 00001ae8H
	jmp	??1CComboBox@@UAE@XZ			; CComboBox::~CComboBox
__unwindfunclet$??0euroNatOptions@@QAE@PAVCWnd@@@Z$12:
	mov	ecx, DWORD PTR _this$[ebp]
	add	ecx, 7004				; 00001b5cH
	jmp	??1CButton@@UAE@XZ			; CButton::~CButton
__ehhandler$??0euroNatOptions@@QAE@PAVCWnd@@@Z:
	mov	edx, DWORD PTR [esp+8]
	lea	eax, DWORD PTR [edx+12]
	mov	ecx, DWORD PTR [edx-12]
	xor	ecx, eax
	call	@__security_check_cookie@4
	mov	eax, OFFSET __ehfuncinfo$??0euroNatOptions@@QAE@PAVCWnd@@@Z
	jmp	___CxxFrameHandler3
??0euroNatOptions@@QAE@PAVCWnd@@@Z ENDP			; euroNatOptions::euroNatOptions
PUBLIC	??1euroNatOptions@@UAE@XZ			; euroNatOptions::~euroNatOptions
__ehfuncinfo$??1euroNatOptions@@UAE@XZ DD 019930522H
	DD	0fH
	DD	FLAT:__unwindtable$??1euroNatOptions@@UAE@XZ
	DD	2 DUP(00H)
	DD	2 DUP(00H)
	DD	00H
	DD	01H
__unwindtable$??1euroNatOptions@@UAE@XZ DD 0ffffffffH
	DD	FLAT:__unwindfunclet$??1euroNatOptions@@UAE@XZ$0
	DD	00H
	DD	FLAT:__unwindfunclet$??1euroNatOptions@@UAE@XZ$1
	DD	01H
	DD	FLAT:__unwindfunclet$??1euroNatOptions@@UAE@XZ$2
	DD	02H
	DD	FLAT:__unwindfunclet$??1euroNatOptions@@UAE@XZ$3
	DD	03H
	DD	FLAT:__unwindfunclet$??1euroNatOptions@@UAE@XZ$4
	DD	04H
	DD	FLAT:__unwindfunclet$??1euroNatOptions@@UAE@XZ$5
	DD	05H
	DD	FLAT:__unwindfunclet$??1euroNatOptions@@UAE@XZ$6
	DD	06H
	DD	FLAT:__unwindfunclet$??1euroNatOptions@@UAE@XZ$7
	DD	07H
	DD	FLAT:__unwindfunclet$??1euroNatOptions@@UAE@XZ$8
	DD	08H
	DD	FLAT:__unwindfunclet$??1euroNatOptions@@UAE@XZ$9
	DD	09H
	DD	FLAT:__unwindfunclet$??1euroNatOptions@@UAE@XZ$10
	DD	0aH
	DD	FLAT:__unwindfunclet$??1euroNatOptions@@UAE@XZ$11
	DD	0bH
	DD	FLAT:__unwindfunclet$??1euroNatOptions@@UAE@XZ$12
	DD	0ffffffffH
	DD	FLAT:__unwindfunclet$??1euroNatOptions@@UAE@XZ$14
	DD	0dH
	DD	FLAT:__unwindfunclet$??1euroNatOptions@@UAE@XZ$15
; Function compile flags: /Ogtp
_TEXT	SEGMENT
_this$ = -16						; size = 4
__$EHRec$ = -12						; size = 12
??1euroNatOptions@@UAE@XZ PROC				; euroNatOptions::~euroNatOptions
; _this$ = ecx
; Line 22
	push	ebp
	mov	ebp, esp
	push	-1
	push	__ehhandler$??1euroNatOptions@@UAE@XZ
	mov	eax, DWORD PTR fs:0
	push	eax
	push	ecx
	push	esi
	mov	eax, DWORD PTR ___security_cookie
	xor	eax, ebp
	push	eax
	lea	eax, DWORD PTR __$EHRec$[ebp]
	mov	DWORD PTR fs:0, eax
	mov	esi, ecx
	mov	DWORD PTR _this$[ebp], esi
	mov	DWORD PTR [esi], OFFSET ??_7euroNatOptions@@6B@
; Line 23
	lea	ecx, DWORD PTR [esi+7120]
	mov	DWORD PTR __$EHRec$[ebp+8], 12		; 0000000cH
	call	??1CButton@@UAE@XZ			; CButton::~CButton
	lea	ecx, DWORD PTR [esi+7004]
	mov	BYTE PTR __$EHRec$[ebp+8], 11		; 0000000bH
	call	??1CButton@@UAE@XZ			; CButton::~CButton
	lea	ecx, DWORD PTR [esi+6888]
	mov	BYTE PTR __$EHRec$[ebp+8], 10		; 0000000aH
	call	??1CComboBox@@UAE@XZ			; CComboBox::~CComboBox
	lea	ecx, DWORD PTR [esi+4924]
	mov	BYTE PTR __$EHRec$[ebp+8], 9
	call	??1CMFCColorButton@@UAE@XZ		; CMFCColorButton::~CMFCColorButton
	lea	ecx, DWORD PTR [esi+2960]
	mov	BYTE PTR __$EHRec$[ebp+8], 8
	call	??1CMFCColorButton@@UAE@XZ		; CMFCColorButton::~CMFCColorButton
	lea	ecx, DWORD PTR [esi+996]
	mov	BYTE PTR __$EHRec$[ebp+8], 7
	call	??1CMFCColorButton@@UAE@XZ		; CMFCColorButton::~CMFCColorButton
	lea	ecx, DWORD PTR [esi+880]
	mov	BYTE PTR __$EHRec$[ebp+8], 6
	call	??1CButton@@UAE@XZ			; CButton::~CButton
	lea	ecx, DWORD PTR [esi+764]
	mov	BYTE PTR __$EHRec$[ebp+8], 5
	call	??1CButton@@UAE@XZ			; CButton::~CButton
	lea	ecx, DWORD PTR [esi+648]
	mov	BYTE PTR __$EHRec$[ebp+8], 4
	call	??1CButton@@UAE@XZ			; CButton::~CButton
	lea	ecx, DWORD PTR [esi+532]
	mov	BYTE PTR __$EHRec$[ebp+8], 3
	call	??1CButton@@UAE@XZ			; CButton::~CButton
	lea	ecx, DWORD PTR [esi+416]
	mov	BYTE PTR __$EHRec$[ebp+8], 2
	call	??1CButton@@UAE@XZ			; CButton::~CButton
	lea	ecx, DWORD PTR [esi+300]
	mov	BYTE PTR __$EHRec$[ebp+8], 1
	call	??1CButton@@UAE@XZ			; CButton::~CButton
	lea	ecx, DWORD PTR [esi+184]
	mov	BYTE PTR __$EHRec$[ebp+8], 0
	call	??1CButton@@UAE@XZ			; CButton::~CButton
	lea	ecx, DWORD PTR [esi+172]
	mov	DWORD PTR __$EHRec$[ebp+8], 14		; 0000000eH
	call	??1CDialogImpl@@MAE@XZ			; CDialogImpl::~CDialogImpl
	lea	ecx, DWORD PTR [esi+160]
	mov	BYTE PTR __$EHRec$[ebp+8], 13		; 0000000dH
	mov	DWORD PTR [ecx], OFFSET ??_7CBrush@@6B@
	call	??1CGdiObject@@UAE@XZ			; CGdiObject::~CGdiObject
	mov	ecx, esi
	mov	DWORD PTR __$EHRec$[ebp+8], -1
	call	??1CDialog@@UAE@XZ			; CDialog::~CDialog
	mov	ecx, DWORD PTR __$EHRec$[ebp]
	mov	DWORD PTR fs:0, ecx
	pop	ecx
	pop	esi
	mov	esp, ebp
	pop	ebp
	ret	0
__unwindfunclet$??1euroNatOptions@@UAE@XZ$0:
	mov	ecx, DWORD PTR _this$[ebp]
	jmp	??1CDialogEx@@UAE@XZ
__unwindfunclet$??1euroNatOptions@@UAE@XZ$1:
	mov	ecx, DWORD PTR _this$[ebp]
	add	ecx, 184				; 000000b8H
	jmp	??1CButton@@UAE@XZ			; CButton::~CButton
__unwindfunclet$??1euroNatOptions@@UAE@XZ$2:
	mov	ecx, DWORD PTR _this$[ebp]
	add	ecx, 300				; 0000012cH
	jmp	??1CButton@@UAE@XZ			; CButton::~CButton
__unwindfunclet$??1euroNatOptions@@UAE@XZ$3:
	mov	ecx, DWORD PTR _this$[ebp]
	add	ecx, 416				; 000001a0H
	jmp	??1CButton@@UAE@XZ			; CButton::~CButton
__unwindfunclet$??1euroNatOptions@@UAE@XZ$4:
	mov	ecx, DWORD PTR _this$[ebp]
	add	ecx, 532				; 00000214H
	jmp	??1CButton@@UAE@XZ			; CButton::~CButton
__unwindfunclet$??1euroNatOptions@@UAE@XZ$5:
	mov	ecx, DWORD PTR _this$[ebp]
	add	ecx, 648				; 00000288H
	jmp	??1CButton@@UAE@XZ			; CButton::~CButton
__unwindfunclet$??1euroNatOptions@@UAE@XZ$6:
	mov	ecx, DWORD PTR _this$[ebp]
	add	ecx, 764				; 000002fcH
	jmp	??1CButton@@UAE@XZ			; CButton::~CButton
__unwindfunclet$??1euroNatOptions@@UAE@XZ$7:
	mov	ecx, DWORD PTR _this$[ebp]
	add	ecx, 880				; 00000370H
	jmp	??1CButton@@UAE@XZ			; CButton::~CButton
__unwindfunclet$??1euroNatOptions@@UAE@XZ$8:
	mov	ecx, DWORD PTR _this$[ebp]
	add	ecx, 996				; 000003e4H
	jmp	??1CMFCColorButton@@UAE@XZ		; CMFCColorButton::~CMFCColorButton
__unwindfunclet$??1euroNatOptions@@UAE@XZ$9:
	mov	ecx, DWORD PTR _this$[ebp]
	add	ecx, 2960				; 00000b90H
	jmp	??1CMFCColorButton@@UAE@XZ		; CMFCColorButton::~CMFCColorButton
__unwindfunclet$??1euroNatOptions@@UAE@XZ$10:
	mov	ecx, DWORD PTR _this$[ebp]
	add	ecx, 4924				; 0000133cH
	jmp	??1CMFCColorButton@@UAE@XZ		; CMFCColorButton::~CMFCColorButton
__unwindfunclet$??1euroNatOptions@@UAE@XZ$11:
	mov	ecx, DWORD PTR _this$[ebp]
	add	ecx, 6888				; 00001ae8H
	jmp	??1CComboBox@@UAE@XZ			; CComboBox::~CComboBox
__unwindfunclet$??1euroNatOptions@@UAE@XZ$12:
	mov	ecx, DWORD PTR _this$[ebp]
	add	ecx, 7004				; 00001b5cH
	jmp	??1CButton@@UAE@XZ			; CButton::~CButton
__unwindfunclet$??1euroNatOptions@@UAE@XZ$14:
	mov	ecx, DWORD PTR _this$[ebp]
	jmp	??1CDialog@@UAE@XZ			; CDialog::~CDialog
__unwindfunclet$??1euroNatOptions@@UAE@XZ$15:
	mov	ecx, DWORD PTR _this$[ebp]
	add	ecx, 160				; 000000a0H
	jmp	??1CBrush@@UAE@XZ			; CBrush::~CBrush
__ehhandler$??1euroNatOptions@@UAE@XZ:
	mov	edx, DWORD PTR [esp+8]
	lea	eax, DWORD PTR [edx+12]
	mov	ecx, DWORD PTR [edx-12]
	xor	ecx, eax
	call	@__security_check_cookie@4
	mov	eax, OFFSET __ehfuncinfo$??1euroNatOptions@@UAE@XZ
	jmp	___CxxFrameHandler3
??1euroNatOptions@@UAE@XZ ENDP				; euroNatOptions::~euroNatOptions
; Function compile flags: /Ogtp
;	COMDAT ??_GeuroNatOptions@@UAEPAXI@Z
_TEXT	SEGMENT
___flags$ = 8						; size = 4
??_GeuroNatOptions@@UAEPAXI@Z PROC			; euroNatOptions::`scalar deleting destructor', COMDAT
; _this$ = ecx
	push	ebp
	mov	ebp, esp
	push	esi
	mov	esi, ecx
	call	??1euroNatOptions@@UAE@XZ		; euroNatOptions::~euroNatOptions
	test	BYTE PTR ___flags$[ebp], 1
	je	SHORT $LN6@scalar@11
	push	esi
	call	??3@YAXPAX@Z				; operator delete
	add	esp, 4
$LN6@scalar@11:
	mov	eax, esi
	pop	esi
	pop	ebp
	ret	4
??_GeuroNatOptions@@UAEPAXI@Z ENDP			; euroNatOptions::`scalar deleting destructor'
; Function compile flags: /Ogtp
_TEXT	SEGMENT
?OnBnClickedGetNatData@euroNatOptions@@QAEXXZ PROC	; euroNatOptions::OnBnClickedGetNatData
; _this$ = ecx
; Line 76
	cmp	BYTE PTR ?Loading@NATShow@@2_NA, 0	; NATShow::Loading
	jne	SHORT $LN4@OnBnClicke
; Line 77
	push	esi
	mov	esi, DWORD PTR ?LastInstance@NATData@@2PAV1@A ; NATData::LastInstance
	push	0
	push	0
	push	0
	push	0
	push	OFFSET ?NATWorkerData@NATData@@2UNATWorkerCont@1@A ; NATData::NATWorkerData
	push	OFFSET ?FetchDataWorker@NATData@@KAIPAX@Z ; NATData::FetchDataWorker
	mov	BYTE PTR ?Loading@NATShow@@2_NA, 1	; NATShow::Loading
	call	?AfxBeginThread@@YGPAVCWinThread@@P6AIPAX@Z0HIKPAU_SECURITY_ATTRIBUTES@@@Z ; AfxBeginThread
	mov	DWORD PTR [esi], eax
	pop	esi
$LN4@OnBnClicke:
; Line 78
	ret	0
?OnBnClickedGetNatData@euroNatOptions@@QAEXXZ ENDP	; euroNatOptions::OnBnClickedGetNatData
_TEXT	ENDS
PUBLIC	?GetThisMessageMap@euroNatOptions@@KGPBUAFX_MSGMAP@@XZ ; euroNatOptions::GetThisMessageMap
; Function compile flags: /Ogtp
_TEXT	SEGMENT
?GetThisMessageMap@euroNatOptions@@KGPBUAFX_MSGMAP@@XZ PROC ; euroNatOptions::GetThisMessageMap
; Line 62
	mov	eax, OFFSET ?messageMap@?1??GetThisMessageMap@euroNatOptions@@KGPBUAFX_MSGMAP@@XZ@4U3@B
	ret	0
?GetThisMessageMap@euroNatOptions@@KGPBUAFX_MSGMAP@@XZ ENDP ; euroNatOptions::GetThisMessageMap
; Function compile flags: /Ogtp
?GetMessageMap@euroNatOptions@@MBEPBUAFX_MSGMAP@@XZ PROC ; euroNatOptions::GetMessageMap
; _this$ = ecx
; Line 47
	mov	eax, OFFSET ?messageMap@?1??GetThisMessageMap@euroNatOptions@@KGPBUAFX_MSGMAP@@XZ@4U3@B
	ret	0
?GetMessageMap@euroNatOptions@@MBEPBUAFX_MSGMAP@@XZ ENDP ; euroNatOptions::GetMessageMap
END
